   1              		.cpu cortex-m4
   2              		.eabi_attribute 27, 1
   3              		.eabi_attribute 20, 1
   4              		.eabi_attribute 21, 1
   5              		.eabi_attribute 23, 3
   6              		.eabi_attribute 24, 1
   7              		.eabi_attribute 25, 1
   8              		.eabi_attribute 26, 1
   9              		.eabi_attribute 30, 2
  10              		.eabi_attribute 34, 1
  11              		.eabi_attribute 18, 4
  12              		.file	"USBController_XMC4000.c"
  13              		.text
  14              	.Ltext0:
  15              		.cfi_sections	.debug_frame
  16              		.section	.text.USBD_HandleEP0_IN.part.0,"ax",%progbits
  17              		.align	1
  18              		.p2align 2,,3
  19              		.arch armv7e-m
  20              		.syntax unified
  21              		.thumb
  22              		.thumb_func
  23              		.fpu fpv4-sp-d16
  25              	USBD_HandleEP0_IN.part.0:
  26              	.LFB198:
  27              		.file 1 "/opt/XMClib/XMC_Peripheral_Library_v2.1.16/ThirdPartyLibraries/USBlib/USB/Core/XMC4000/US
   1:/opt/XMClib/XMC_Peripheral_Library_v2.1.16/ThirdPartyLibraries/USBlib/USB/Core/XMC4000/USBController_XMC4000.c **** /*
   2:/opt/XMClib/XMC_Peripheral_Library_v2.1.16/ThirdPartyLibraries/USBlib/USB/Core/XMC4000/USBController_XMC4000.c ****              LUFA Library
   3:/opt/XMClib/XMC_Peripheral_Library_v2.1.16/ThirdPartyLibraries/USBlib/USB/Core/XMC4000/USBController_XMC4000.c ****      Copyright (C) Dean Camera, 2014.
   4:/opt/XMClib/XMC_Peripheral_Library_v2.1.16/ThirdPartyLibraries/USBlib/USB/Core/XMC4000/USBController_XMC4000.c **** 
   5:/opt/XMClib/XMC_Peripheral_Library_v2.1.16/ThirdPartyLibraries/USBlib/USB/Core/XMC4000/USBController_XMC4000.c ****   dean [at] fourwalledcubicle [dot] com
   6:/opt/XMClib/XMC_Peripheral_Library_v2.1.16/ThirdPartyLibraries/USBlib/USB/Core/XMC4000/USBController_XMC4000.c ****            www.lufa-lib.org
   7:/opt/XMClib/XMC_Peripheral_Library_v2.1.16/ThirdPartyLibraries/USBlib/USB/Core/XMC4000/USBController_XMC4000.c **** */
   8:/opt/XMClib/XMC_Peripheral_Library_v2.1.16/ThirdPartyLibraries/USBlib/USB/Core/XMC4000/USBController_XMC4000.c **** 
   9:/opt/XMClib/XMC_Peripheral_Library_v2.1.16/ThirdPartyLibraries/USBlib/USB/Core/XMC4000/USBController_XMC4000.c **** /*
  10:/opt/XMClib/XMC_Peripheral_Library_v2.1.16/ThirdPartyLibraries/USBlib/USB/Core/XMC4000/USBController_XMC4000.c ****   Copyright 2014  Dean Camera (dean [at] fourwalledcubicle [dot] com)
  11:/opt/XMClib/XMC_Peripheral_Library_v2.1.16/ThirdPartyLibraries/USBlib/USB/Core/XMC4000/USBController_XMC4000.c **** 
  12:/opt/XMClib/XMC_Peripheral_Library_v2.1.16/ThirdPartyLibraries/USBlib/USB/Core/XMC4000/USBController_XMC4000.c ****   Permission to use, copy, modify, distribute, and sell this
  13:/opt/XMClib/XMC_Peripheral_Library_v2.1.16/ThirdPartyLibraries/USBlib/USB/Core/XMC4000/USBController_XMC4000.c ****   software and its documentation for any purpose is hereby granted
  14:/opt/XMClib/XMC_Peripheral_Library_v2.1.16/ThirdPartyLibraries/USBlib/USB/Core/XMC4000/USBController_XMC4000.c ****   without fee, provided that the above copyright notice appear in
  15:/opt/XMClib/XMC_Peripheral_Library_v2.1.16/ThirdPartyLibraries/USBlib/USB/Core/XMC4000/USBController_XMC4000.c ****   all copies and that both that the copyright notice and this
  16:/opt/XMClib/XMC_Peripheral_Library_v2.1.16/ThirdPartyLibraries/USBlib/USB/Core/XMC4000/USBController_XMC4000.c ****   permission notice and warranty disclaimer appear in supporting
  17:/opt/XMClib/XMC_Peripheral_Library_v2.1.16/ThirdPartyLibraries/USBlib/USB/Core/XMC4000/USBController_XMC4000.c ****   documentation, and that the name of the author not be used in
  18:/opt/XMClib/XMC_Peripheral_Library_v2.1.16/ThirdPartyLibraries/USBlib/USB/Core/XMC4000/USBController_XMC4000.c ****   advertising or publicity pertaining to distribution of the
  19:/opt/XMClib/XMC_Peripheral_Library_v2.1.16/ThirdPartyLibraries/USBlib/USB/Core/XMC4000/USBController_XMC4000.c ****   software without specific, written prior permission.
  20:/opt/XMClib/XMC_Peripheral_Library_v2.1.16/ThirdPartyLibraries/USBlib/USB/Core/XMC4000/USBController_XMC4000.c **** 
  21:/opt/XMClib/XMC_Peripheral_Library_v2.1.16/ThirdPartyLibraries/USBlib/USB/Core/XMC4000/USBController_XMC4000.c ****   The author disclaims all warranties with regard to this
  22:/opt/XMClib/XMC_Peripheral_Library_v2.1.16/ThirdPartyLibraries/USBlib/USB/Core/XMC4000/USBController_XMC4000.c ****   software, including all implied warranties of merchantability
  23:/opt/XMClib/XMC_Peripheral_Library_v2.1.16/ThirdPartyLibraries/USBlib/USB/Core/XMC4000/USBController_XMC4000.c ****   and fitness.  In no event shall the author be liable for any
  24:/opt/XMClib/XMC_Peripheral_Library_v2.1.16/ThirdPartyLibraries/USBlib/USB/Core/XMC4000/USBController_XMC4000.c ****   special, indirect or consequential damages or any damages
  25:/opt/XMClib/XMC_Peripheral_Library_v2.1.16/ThirdPartyLibraries/USBlib/USB/Core/XMC4000/USBController_XMC4000.c ****   whatsoever resulting from loss of use, data or profits, whether
  26:/opt/XMClib/XMC_Peripheral_Library_v2.1.16/ThirdPartyLibraries/USBlib/USB/Core/XMC4000/USBController_XMC4000.c ****   in an action of contract, negligence or other tortious action,
  27:/opt/XMClib/XMC_Peripheral_Library_v2.1.16/ThirdPartyLibraries/USBlib/USB/Core/XMC4000/USBController_XMC4000.c ****   arising out of or in connection with the use or performance of
  28:/opt/XMClib/XMC_Peripheral_Library_v2.1.16/ThirdPartyLibraries/USBlib/USB/Core/XMC4000/USBController_XMC4000.c ****   this software.
  29:/opt/XMClib/XMC_Peripheral_Library_v2.1.16/ThirdPartyLibraries/USBlib/USB/Core/XMC4000/USBController_XMC4000.c **** */
  30:/opt/XMClib/XMC_Peripheral_Library_v2.1.16/ThirdPartyLibraries/USBlib/USB/Core/XMC4000/USBController_XMC4000.c **** 
  31:/opt/XMClib/XMC_Peripheral_Library_v2.1.16/ThirdPartyLibraries/USBlib/USB/Core/XMC4000/USBController_XMC4000.c **** #include "../../Common/Common.h"
  32:/opt/XMClib/XMC_Peripheral_Library_v2.1.16/ThirdPartyLibraries/USBlib/USB/Core/XMC4000/USBController_XMC4000.c **** 
  33:/opt/XMClib/XMC_Peripheral_Library_v2.1.16/ThirdPartyLibraries/USBlib/USB/Core/XMC4000/USBController_XMC4000.c **** #define  __INCLUDE_FROM_USB_DRIVER
  34:/opt/XMClib/XMC_Peripheral_Library_v2.1.16/ThirdPartyLibraries/USBlib/USB/Core/XMC4000/USBController_XMC4000.c **** #define  __INCLUDE_FROM_USB_CONTROLLER_C
  35:/opt/XMClib/XMC_Peripheral_Library_v2.1.16/ThirdPartyLibraries/USBlib/USB/Core/XMC4000/USBController_XMC4000.c **** #include "../USBController.h"
  36:/opt/XMClib/XMC_Peripheral_Library_v2.1.16/ThirdPartyLibraries/USBlib/USB/Core/XMC4000/USBController_XMC4000.c **** 
  37:/opt/XMClib/XMC_Peripheral_Library_v2.1.16/ThirdPartyLibraries/USBlib/USB/Core/XMC4000/USBController_XMC4000.c **** USB_Device_t device;
  38:/opt/XMClib/XMC_Peripheral_Library_v2.1.16/ThirdPartyLibraries/USBlib/USB/Core/XMC4000/USBController_XMC4000.c **** 
  39:/opt/XMClib/XMC_Peripheral_Library_v2.1.16/ThirdPartyLibraries/USBlib/USB/Core/XMC4000/USBController_XMC4000.c **** uint8_t endpoint0_in_buffer[256];
  40:/opt/XMClib/XMC_Peripheral_Library_v2.1.16/ThirdPartyLibraries/USBlib/USB/Core/XMC4000/USBController_XMC4000.c **** uint8_t endpoint0_out_buffer[256];
  41:/opt/XMClib/XMC_Peripheral_Library_v2.1.16/ThirdPartyLibraries/USBlib/USB/Core/XMC4000/USBController_XMC4000.c **** 
  42:/opt/XMClib/XMC_Peripheral_Library_v2.1.16/ThirdPartyLibraries/USBlib/USB/Core/XMC4000/USBController_XMC4000.c **** /**
  43:/opt/XMClib/XMC_Peripheral_Library_v2.1.16/ThirdPartyLibraries/USBlib/USB/Core/XMC4000/USBController_XMC4000.c ****  * \ingroup USBD_Core_Driver
  44:/opt/XMClib/XMC_Peripheral_Library_v2.1.16/ThirdPartyLibraries/USBlib/USB/Core/XMC4000/USBController_XMC4000.c ****  * \defgroup EP0_Handling Handling of EP0 Control Request
  45:/opt/XMClib/XMC_Peripheral_Library_v2.1.16/ThirdPartyLibraries/USBlib/USB/Core/XMC4000/USBController_XMC4000.c ****  * \brief
  46:/opt/XMClib/XMC_Peripheral_Library_v2.1.16/ThirdPartyLibraries/USBlib/USB/Core/XMC4000/USBController_XMC4000.c ****  * @{
  47:/opt/XMClib/XMC_Peripheral_Library_v2.1.16/ThirdPartyLibraries/USBlib/USB/Core/XMC4000/USBController_XMC4000.c ****  */
  48:/opt/XMClib/XMC_Peripheral_Library_v2.1.16/ThirdPartyLibraries/USBlib/USB/Core/XMC4000/USBController_XMC4000.c **** 
  49:/opt/XMClib/XMC_Peripheral_Library_v2.1.16/ThirdPartyLibraries/USBlib/USB/Core/XMC4000/USBController_XMC4000.c **** /**
  50:/opt/XMClib/XMC_Peripheral_Library_v2.1.16/ThirdPartyLibraries/USBlib/USB/Core/XMC4000/USBController_XMC4000.c ****  * \brief Handle protocol stall on EP0
  51:/opt/XMClib/XMC_Peripheral_Library_v2.1.16/ThirdPartyLibraries/USBlib/USB/Core/XMC4000/USBController_XMC4000.c ****  *
  52:/opt/XMClib/XMC_Peripheral_Library_v2.1.16/ThirdPartyLibraries/USBlib/USB/Core/XMC4000/USBController_XMC4000.c ****  * Stalls EP0 and then restarts a new transfer including setting state to \ref IDLE.
  53:/opt/XMClib/XMC_Peripheral_Library_v2.1.16/ThirdPartyLibraries/USBlib/USB/Core/XMC4000/USBController_XMC4000.c ****  */
  54:/opt/XMClib/XMC_Peripheral_Library_v2.1.16/ThirdPartyLibraries/USBlib/USB/Core/XMC4000/USBController_XMC4000.c **** void USBD_HandleEP0_Stall() {
  55:/opt/XMClib/XMC_Peripheral_Library_v2.1.16/ThirdPartyLibraries/USBlib/USB/Core/XMC4000/USBController_XMC4000.c **** 	/* When we stall ep0 as protocol stall, we go back into idle state and start a new read */
  56:/opt/XMClib/XMC_Peripheral_Library_v2.1.16/ThirdPartyLibraries/USBlib/USB/Core/XMC4000/USBController_XMC4000.c **** 	device.Driver->EndpointStall(ENDPOINT_DIR_IN | 0,1);
  57:/opt/XMClib/XMC_Peripheral_Library_v2.1.16/ThirdPartyLibraries/USBlib/USB/Core/XMC4000/USBController_XMC4000.c **** 	device.EP0_State = IDLE;
  58:/opt/XMClib/XMC_Peripheral_Library_v2.1.16/ThirdPartyLibraries/USBlib/USB/Core/XMC4000/USBController_XMC4000.c **** 	device.Driver->EndpointReadStart(0,24);
  59:/opt/XMClib/XMC_Peripheral_Library_v2.1.16/ThirdPartyLibraries/USBlib/USB/Core/XMC4000/USBController_XMC4000.c **** }
  60:/opt/XMClib/XMC_Peripheral_Library_v2.1.16/ThirdPartyLibraries/USBlib/USB/Core/XMC4000/USBController_XMC4000.c **** 
  61:/opt/XMClib/XMC_Peripheral_Library_v2.1.16/ThirdPartyLibraries/USBlib/USB/Core/XMC4000/USBController_XMC4000.c **** /**
  62:/opt/XMClib/XMC_Peripheral_Library_v2.1.16/ThirdPartyLibraries/USBlib/USB/Core/XMC4000/USBController_XMC4000.c ****  * \brief Handle device request on endpoint 0
  63:/opt/XMClib/XMC_Peripheral_Library_v2.1.16/ThirdPartyLibraries/USBlib/USB/Core/XMC4000/USBController_XMC4000.c ****  *
  64:/opt/XMClib/XMC_Peripheral_Library_v2.1.16/ThirdPartyLibraries/USBlib/USB/Core/XMC4000/USBController_XMC4000.c ****  * By default any USB device has to support a subset of device control request defiened by
  65:/opt/XMClib/XMC_Peripheral_Library_v2.1.16/ThirdPartyLibraries/USBlib/USB/Core/XMC4000/USBController_XMC4000.c ****  * the USB specification. All request required by the spec are handle within this function.
  66:/opt/XMClib/XMC_Peripheral_Library_v2.1.16/ThirdPartyLibraries/USBlib/USB/Core/XMC4000/USBController_XMC4000.c ****  * Before a handling of the request is done by this function, it dispatches it to the
  67:/opt/XMClib/XMC_Peripheral_Library_v2.1.16/ThirdPartyLibraries/USBlib/USB/Core/XMC4000/USBController_XMC4000.c ****  * \ref EVENT_USB_Device_ControlRequest function. There the user has the chance to complete
  68:/opt/XMClib/XMC_Peripheral_Library_v2.1.16/ThirdPartyLibraries/USBlib/USB/Core/XMC4000/USBController_XMC4000.c ****  * some custom request or override the handling of this function. If the user has handled the
  69:/opt/XMClib/XMC_Peripheral_Library_v2.1.16/ThirdPartyLibraries/USBlib/USB/Core/XMC4000/USBController_XMC4000.c ****  * request, he has to call \ref Endpoint_ClearSETUP.
  70:/opt/XMClib/XMC_Peripheral_Library_v2.1.16/ThirdPartyLibraries/USBlib/USB/Core/XMC4000/USBController_XMC4000.c ****  *
  71:/opt/XMClib/XMC_Peripheral_Library_v2.1.16/ThirdPartyLibraries/USBlib/USB/Core/XMC4000/USBController_XMC4000.c ****  */
  72:/opt/XMClib/XMC_Peripheral_Library_v2.1.16/ThirdPartyLibraries/USBlib/USB/Core/XMC4000/USBController_XMC4000.c **** void USB_Device_ProcessControlRequest() {
  73:/opt/XMClib/XMC_Peripheral_Library_v2.1.16/ThirdPartyLibraries/USBlib/USB/Core/XMC4000/USBController_XMC4000.c **** 	uint32_t length = 0,ret;
  74:/opt/XMClib/XMC_Peripheral_Library_v2.1.16/ThirdPartyLibraries/USBlib/USB/Core/XMC4000/USBController_XMC4000.c **** 	uint16_t status = 0;
  75:/opt/XMClib/XMC_Peripheral_Library_v2.1.16/ThirdPartyLibraries/USBlib/USB/Core/XMC4000/USBController_XMC4000.c **** 	void *buffer;
  76:/opt/XMClib/XMC_Peripheral_Library_v2.1.16/ThirdPartyLibraries/USBlib/USB/Core/XMC4000/USBController_XMC4000.c **** 	uint8_t Value;
  77:/opt/XMClib/XMC_Peripheral_Library_v2.1.16/ThirdPartyLibraries/USBlib/USB/Core/XMC4000/USBController_XMC4000.c **** 	uint16_t Index;
  78:/opt/XMClib/XMC_Peripheral_Library_v2.1.16/ThirdPartyLibraries/USBlib/USB/Core/XMC4000/USBController_XMC4000.c **** 
  79:/opt/XMClib/XMC_Peripheral_Library_v2.1.16/ThirdPartyLibraries/USBlib/USB/Core/XMC4000/USBController_XMC4000.c **** 	Value = USB_ControlRequest.wValue & 0x00FF;
  80:/opt/XMClib/XMC_Peripheral_Library_v2.1.16/ThirdPartyLibraries/USBlib/USB/Core/XMC4000/USBController_XMC4000.c **** 
  81:/opt/XMClib/XMC_Peripheral_Library_v2.1.16/ThirdPartyLibraries/USBlib/USB/Core/XMC4000/USBController_XMC4000.c **** 	/* Handling of descriptors */
  82:/opt/XMClib/XMC_Peripheral_Library_v2.1.16/ThirdPartyLibraries/USBlib/USB/Core/XMC4000/USBController_XMC4000.c **** 	EVENT_USB_Device_ControlRequest();
  83:/opt/XMClib/XMC_Peripheral_Library_v2.1.16/ThirdPartyLibraries/USBlib/USB/Core/XMC4000/USBController_XMC4000.c **** 	if (!device.IsSetupRecieved)
  84:/opt/XMClib/XMC_Peripheral_Library_v2.1.16/ThirdPartyLibraries/USBlib/USB/Core/XMC4000/USBController_XMC4000.c **** 		return;
  85:/opt/XMClib/XMC_Peripheral_Library_v2.1.16/ThirdPartyLibraries/USBlib/USB/Core/XMC4000/USBController_XMC4000.c **** 
  86:/opt/XMClib/XMC_Peripheral_Library_v2.1.16/ThirdPartyLibraries/USBlib/USB/Core/XMC4000/USBController_XMC4000.c **** 	/* default request handling */
  87:/opt/XMClib/XMC_Peripheral_Library_v2.1.16/ThirdPartyLibraries/USBlib/USB/Core/XMC4000/USBController_XMC4000.c **** 	switch (USB_ControlRequest.bRequest) {
  88:/opt/XMClib/XMC_Peripheral_Library_v2.1.16/ThirdPartyLibraries/USBlib/USB/Core/XMC4000/USBController_XMC4000.c **** 	case REQ_ClearFeature:
  89:/opt/XMClib/XMC_Peripheral_Library_v2.1.16/ThirdPartyLibraries/USBlib/USB/Core/XMC4000/USBController_XMC4000.c **** 		if ((USB_ControlRequest.bmRequestType & 0x3) == REQREC_ENDPOINT) {
  90:/opt/XMClib/XMC_Peripheral_Library_v2.1.16/ThirdPartyLibraries/USBlib/USB/Core/XMC4000/USBController_XMC4000.c **** 			Index = USB_ControlRequest.wIndex & ENDPOINT_EPNUM_MASK;
  91:/opt/XMClib/XMC_Peripheral_Library_v2.1.16/ThirdPartyLibraries/USBlib/USB/Core/XMC4000/USBController_XMC4000.c **** 			if ((USB_DeviceState == DEVICE_STATE_Configured || USB_ControlRequest.wIndex==0)  &&
  92:/opt/XMClib/XMC_Peripheral_Library_v2.1.16/ThirdPartyLibraries/USBlib/USB/Core/XMC4000/USBController_XMC4000.c **** 					device.Endpoints[Index].IsConfigured==1) {
  93:/opt/XMClib/XMC_Peripheral_Library_v2.1.16/ThirdPartyLibraries/USBlib/USB/Core/XMC4000/USBController_XMC4000.c **** 				device.Endpoints[Index].IsHalted = 0;
  94:/opt/XMClib/XMC_Peripheral_Library_v2.1.16/ThirdPartyLibraries/USBlib/USB/Core/XMC4000/USBController_XMC4000.c **** 				device.Driver->EndpointStall(USB_ControlRequest.wIndex,0);
  95:/opt/XMClib/XMC_Peripheral_Library_v2.1.16/ThirdPartyLibraries/USBlib/USB/Core/XMC4000/USBController_XMC4000.c **** 			} else {
  96:/opt/XMClib/XMC_Peripheral_Library_v2.1.16/ThirdPartyLibraries/USBlib/USB/Core/XMC4000/USBController_XMC4000.c **** 				USBD_HandleEP0_Stall();
  97:/opt/XMClib/XMC_Peripheral_Library_v2.1.16/ThirdPartyLibraries/USBlib/USB/Core/XMC4000/USBController_XMC4000.c **** 			}
  98:/opt/XMClib/XMC_Peripheral_Library_v2.1.16/ThirdPartyLibraries/USBlib/USB/Core/XMC4000/USBController_XMC4000.c **** 			break;
  99:/opt/XMClib/XMC_Peripheral_Library_v2.1.16/ThirdPartyLibraries/USBlib/USB/Core/XMC4000/USBController_XMC4000.c **** 		}
 100:/opt/XMClib/XMC_Peripheral_Library_v2.1.16/ThirdPartyLibraries/USBlib/USB/Core/XMC4000/USBController_XMC4000.c **** 		if ((USB_ControlRequest.bmRequestType & 0x3) == REQREC_DEVICE) {
 101:/opt/XMClib/XMC_Peripheral_Library_v2.1.16/ThirdPartyLibraries/USBlib/USB/Core/XMC4000/USBController_XMC4000.c **** 			 device.RemoteWakeUp = 0;
 102:/opt/XMClib/XMC_Peripheral_Library_v2.1.16/ThirdPartyLibraries/USBlib/USB/Core/XMC4000/USBController_XMC4000.c **** 			 break;
 103:/opt/XMClib/XMC_Peripheral_Library_v2.1.16/ThirdPartyLibraries/USBlib/USB/Core/XMC4000/USBController_XMC4000.c **** 		}
 104:/opt/XMClib/XMC_Peripheral_Library_v2.1.16/ThirdPartyLibraries/USBlib/USB/Core/XMC4000/USBController_XMC4000.c **** 		USBD_HandleEP0_Stall();
 105:/opt/XMClib/XMC_Peripheral_Library_v2.1.16/ThirdPartyLibraries/USBlib/USB/Core/XMC4000/USBController_XMC4000.c **** 		break;
 106:/opt/XMClib/XMC_Peripheral_Library_v2.1.16/ThirdPartyLibraries/USBlib/USB/Core/XMC4000/USBController_XMC4000.c **** 
 107:/opt/XMClib/XMC_Peripheral_Library_v2.1.16/ThirdPartyLibraries/USBlib/USB/Core/XMC4000/USBController_XMC4000.c **** 	case REQ_GetConfiguration:
 108:/opt/XMClib/XMC_Peripheral_Library_v2.1.16/ThirdPartyLibraries/USBlib/USB/Core/XMC4000/USBController_XMC4000.c **** 		device.Driver->EndpointWrite(0,&device.Configuration,1);
 109:/opt/XMClib/XMC_Peripheral_Library_v2.1.16/ThirdPartyLibraries/USBlib/USB/Core/XMC4000/USBController_XMC4000.c **** 		break;
 110:/opt/XMClib/XMC_Peripheral_Library_v2.1.16/ThirdPartyLibraries/USBlib/USB/Core/XMC4000/USBController_XMC4000.c **** 
 111:/opt/XMClib/XMC_Peripheral_Library_v2.1.16/ThirdPartyLibraries/USBlib/USB/Core/XMC4000/USBController_XMC4000.c **** 	case REQ_GetDescriptor:
 112:/opt/XMClib/XMC_Peripheral_Library_v2.1.16/ThirdPartyLibraries/USBlib/USB/Core/XMC4000/USBController_XMC4000.c **** 		length = CALLBACK_USB_GetDescriptor(USB_ControlRequest.wValue,USB_ControlRequest.wIndex,(void*)&b
 113:/opt/XMClib/XMC_Peripheral_Library_v2.1.16/ThirdPartyLibraries/USBlib/USB/Core/XMC4000/USBController_XMC4000.c **** 		if (length==0)
 114:/opt/XMClib/XMC_Peripheral_Library_v2.1.16/ThirdPartyLibraries/USBlib/USB/Core/XMC4000/USBController_XMC4000.c **** 			USBD_HandleEP0_Stall();
 115:/opt/XMClib/XMC_Peripheral_Library_v2.1.16/ThirdPartyLibraries/USBlib/USB/Core/XMC4000/USBController_XMC4000.c **** 		else {
 116:/opt/XMClib/XMC_Peripheral_Library_v2.1.16/ThirdPartyLibraries/USBlib/USB/Core/XMC4000/USBController_XMC4000.c **** 			length = length < USB_ControlRequest.wLength ?
 117:/opt/XMClib/XMC_Peripheral_Library_v2.1.16/ThirdPartyLibraries/USBlib/USB/Core/XMC4000/USBController_XMC4000.c **** 					length : USB_ControlRequest.wLength;
 118:/opt/XMClib/XMC_Peripheral_Library_v2.1.16/ThirdPartyLibraries/USBlib/USB/Core/XMC4000/USBController_XMC4000.c **** 			ret = device.Driver->EndpointWrite(0,buffer,length);
 119:/opt/XMClib/XMC_Peripheral_Library_v2.1.16/ThirdPartyLibraries/USBlib/USB/Core/XMC4000/USBController_XMC4000.c **** 			device.Endpoints[0].InDataLeft = length - ret;
 120:/opt/XMClib/XMC_Peripheral_Library_v2.1.16/ThirdPartyLibraries/USBlib/USB/Core/XMC4000/USBController_XMC4000.c **** 			device.Endpoints[0].InDataBuffer = (uint8_t *)((uint32_t)buffer + ret);
 121:/opt/XMClib/XMC_Peripheral_Library_v2.1.16/ThirdPartyLibraries/USBlib/USB/Core/XMC4000/USBController_XMC4000.c **** 		}
 122:/opt/XMClib/XMC_Peripheral_Library_v2.1.16/ThirdPartyLibraries/USBlib/USB/Core/XMC4000/USBController_XMC4000.c **** 		break;
 123:/opt/XMClib/XMC_Peripheral_Library_v2.1.16/ThirdPartyLibraries/USBlib/USB/Core/XMC4000/USBController_XMC4000.c **** 
 124:/opt/XMClib/XMC_Peripheral_Library_v2.1.16/ThirdPartyLibraries/USBlib/USB/Core/XMC4000/USBController_XMC4000.c **** 	case REQ_GetInterface:
 125:/opt/XMClib/XMC_Peripheral_Library_v2.1.16/ThirdPartyLibraries/USBlib/USB/Core/XMC4000/USBController_XMC4000.c **** 		if (USB_DeviceState == DEVICE_STATE_Configured) {
 126:/opt/XMClib/XMC_Peripheral_Library_v2.1.16/ThirdPartyLibraries/USBlib/USB/Core/XMC4000/USBController_XMC4000.c **** 			device.Driver->EndpointWrite(0,&device.InterfaceSettings[USB_ControlRequest.wIndex],1);
 127:/opt/XMClib/XMC_Peripheral_Library_v2.1.16/ThirdPartyLibraries/USBlib/USB/Core/XMC4000/USBController_XMC4000.c **** 			break;
 128:/opt/XMClib/XMC_Peripheral_Library_v2.1.16/ThirdPartyLibraries/USBlib/USB/Core/XMC4000/USBController_XMC4000.c **** 		}
 129:/opt/XMClib/XMC_Peripheral_Library_v2.1.16/ThirdPartyLibraries/USBlib/USB/Core/XMC4000/USBController_XMC4000.c **** 		if (USB_DeviceState == DEVICE_STATE_Addressed) {
 130:/opt/XMClib/XMC_Peripheral_Library_v2.1.16/ThirdPartyLibraries/USBlib/USB/Core/XMC4000/USBController_XMC4000.c **** 			USBD_HandleEP0_Stall();
 131:/opt/XMClib/XMC_Peripheral_Library_v2.1.16/ThirdPartyLibraries/USBlib/USB/Core/XMC4000/USBController_XMC4000.c **** 			break;
 132:/opt/XMClib/XMC_Peripheral_Library_v2.1.16/ThirdPartyLibraries/USBlib/USB/Core/XMC4000/USBController_XMC4000.c **** 		}
 133:/opt/XMClib/XMC_Peripheral_Library_v2.1.16/ThirdPartyLibraries/USBlib/USB/Core/XMC4000/USBController_XMC4000.c **** 		break;
 134:/opt/XMClib/XMC_Peripheral_Library_v2.1.16/ThirdPartyLibraries/USBlib/USB/Core/XMC4000/USBController_XMC4000.c **** 
 135:/opt/XMClib/XMC_Peripheral_Library_v2.1.16/ThirdPartyLibraries/USBlib/USB/Core/XMC4000/USBController_XMC4000.c **** 	case REQ_GetStatus:
 136:/opt/XMClib/XMC_Peripheral_Library_v2.1.16/ThirdPartyLibraries/USBlib/USB/Core/XMC4000/USBController_XMC4000.c **** 		if ((USB_ControlRequest.bmRequestType & 0x3) == REQREC_DEVICE) {
 137:/opt/XMClib/XMC_Peripheral_Library_v2.1.16/ThirdPartyLibraries/USBlib/USB/Core/XMC4000/USBController_XMC4000.c **** 			status = device.RemoteWakeUp << 1 | device.SelfPowered;
 138:/opt/XMClib/XMC_Peripheral_Library_v2.1.16/ThirdPartyLibraries/USBlib/USB/Core/XMC4000/USBController_XMC4000.c **** 			device.Driver->EndpointWrite(0,(uint8_t*)&status,2);
 139:/opt/XMClib/XMC_Peripheral_Library_v2.1.16/ThirdPartyLibraries/USBlib/USB/Core/XMC4000/USBController_XMC4000.c **** 			break;
 140:/opt/XMClib/XMC_Peripheral_Library_v2.1.16/ThirdPartyLibraries/USBlib/USB/Core/XMC4000/USBController_XMC4000.c **** 		}
 141:/opt/XMClib/XMC_Peripheral_Library_v2.1.16/ThirdPartyLibraries/USBlib/USB/Core/XMC4000/USBController_XMC4000.c **** 		if ((USB_ControlRequest.bmRequestType & 0x3) == REQREC_INTERFACE && USB_DeviceState == DEVICE_STA
 142:/opt/XMClib/XMC_Peripheral_Library_v2.1.16/ThirdPartyLibraries/USBlib/USB/Core/XMC4000/USBController_XMC4000.c **** 			status = 0;
 143:/opt/XMClib/XMC_Peripheral_Library_v2.1.16/ThirdPartyLibraries/USBlib/USB/Core/XMC4000/USBController_XMC4000.c **** 			device.Driver->EndpointWrite(0,(uint8_t*)&status,2);
 144:/opt/XMClib/XMC_Peripheral_Library_v2.1.16/ThirdPartyLibraries/USBlib/USB/Core/XMC4000/USBController_XMC4000.c **** 			break;
 145:/opt/XMClib/XMC_Peripheral_Library_v2.1.16/ThirdPartyLibraries/USBlib/USB/Core/XMC4000/USBController_XMC4000.c **** 		}
 146:/opt/XMClib/XMC_Peripheral_Library_v2.1.16/ThirdPartyLibraries/USBlib/USB/Core/XMC4000/USBController_XMC4000.c **** 		/* print endpoint status only when(or):
 147:/opt/XMClib/XMC_Peripheral_Library_v2.1.16/ThirdPartyLibraries/USBlib/USB/Core/XMC4000/USBController_XMC4000.c **** 		 * - Device_Address_state and ep == 0
 148:/opt/XMClib/XMC_Peripheral_Library_v2.1.16/ThirdPartyLibraries/USBlib/USB/Core/XMC4000/USBController_XMC4000.c **** 		 * - Device_configured_state and ep is configured
 149:/opt/XMClib/XMC_Peripheral_Library_v2.1.16/ThirdPartyLibraries/USBlib/USB/Core/XMC4000/USBController_XMC4000.c **** 		 */
 150:/opt/XMClib/XMC_Peripheral_Library_v2.1.16/ThirdPartyLibraries/USBlib/USB/Core/XMC4000/USBController_XMC4000.c **** 		if ((USB_ControlRequest.bmRequestType & 0x3) == REQREC_ENDPOINT) {
 151:/opt/XMClib/XMC_Peripheral_Library_v2.1.16/ThirdPartyLibraries/USBlib/USB/Core/XMC4000/USBController_XMC4000.c **** 			Index = USB_ControlRequest.wIndex & 0xFF & ENDPOINT_EPNUM_MASK;
 152:/opt/XMClib/XMC_Peripheral_Library_v2.1.16/ThirdPartyLibraries/USBlib/USB/Core/XMC4000/USBController_XMC4000.c **** 			if ((USB_DeviceState == DEVICE_STATE_Configured || USB_ControlRequest.wIndex==0) &&
 153:/opt/XMClib/XMC_Peripheral_Library_v2.1.16/ThirdPartyLibraries/USBlib/USB/Core/XMC4000/USBController_XMC4000.c **** 					device.Endpoints[Index].IsConfigured==1) {
 154:/opt/XMClib/XMC_Peripheral_Library_v2.1.16/ThirdPartyLibraries/USBlib/USB/Core/XMC4000/USBController_XMC4000.c **** 				status = device.Endpoints[Index].IsHalted;
 155:/opt/XMClib/XMC_Peripheral_Library_v2.1.16/ThirdPartyLibraries/USBlib/USB/Core/XMC4000/USBController_XMC4000.c **** 				device.Driver->EndpointWrite(0,(uint8_t*)&status,2);
 156:/opt/XMClib/XMC_Peripheral_Library_v2.1.16/ThirdPartyLibraries/USBlib/USB/Core/XMC4000/USBController_XMC4000.c **** 				break;
 157:/opt/XMClib/XMC_Peripheral_Library_v2.1.16/ThirdPartyLibraries/USBlib/USB/Core/XMC4000/USBController_XMC4000.c **** 			}
 158:/opt/XMClib/XMC_Peripheral_Library_v2.1.16/ThirdPartyLibraries/USBlib/USB/Core/XMC4000/USBController_XMC4000.c **** 		}
 159:/opt/XMClib/XMC_Peripheral_Library_v2.1.16/ThirdPartyLibraries/USBlib/USB/Core/XMC4000/USBController_XMC4000.c **** 		/* default stall */
 160:/opt/XMClib/XMC_Peripheral_Library_v2.1.16/ThirdPartyLibraries/USBlib/USB/Core/XMC4000/USBController_XMC4000.c **** 		USBD_HandleEP0_Stall();
 161:/opt/XMClib/XMC_Peripheral_Library_v2.1.16/ThirdPartyLibraries/USBlib/USB/Core/XMC4000/USBController_XMC4000.c **** 		break;
 162:/opt/XMClib/XMC_Peripheral_Library_v2.1.16/ThirdPartyLibraries/USBlib/USB/Core/XMC4000/USBController_XMC4000.c **** 
 163:/opt/XMClib/XMC_Peripheral_Library_v2.1.16/ThirdPartyLibraries/USBlib/USB/Core/XMC4000/USBController_XMC4000.c **** 	case REQ_SetAddress:
 164:/opt/XMClib/XMC_Peripheral_Library_v2.1.16/ThirdPartyLibraries/USBlib/USB/Core/XMC4000/USBController_XMC4000.c **** 		if (Value == 0)
 165:/opt/XMClib/XMC_Peripheral_Library_v2.1.16/ThirdPartyLibraries/USBlib/USB/Core/XMC4000/USBController_XMC4000.c **** 			USB_DeviceState = DEVICE_STATE_Default;
 166:/opt/XMClib/XMC_Peripheral_Library_v2.1.16/ThirdPartyLibraries/USBlib/USB/Core/XMC4000/USBController_XMC4000.c **** 		else
 167:/opt/XMClib/XMC_Peripheral_Library_v2.1.16/ThirdPartyLibraries/USBlib/USB/Core/XMC4000/USBController_XMC4000.c **** 			USB_DeviceState = DEVICE_STATE_Addressed;
 168:/opt/XMClib/XMC_Peripheral_Library_v2.1.16/ThirdPartyLibraries/USBlib/USB/Core/XMC4000/USBController_XMC4000.c **** 		device.Driver->DeviceSetAddress(Value,XMC_USBD_SET_ADDRESS_STAGE_SETUP);
 169:/opt/XMClib/XMC_Peripheral_Library_v2.1.16/ThirdPartyLibraries/USBlib/USB/Core/XMC4000/USBController_XMC4000.c **** 		break;
 170:/opt/XMClib/XMC_Peripheral_Library_v2.1.16/ThirdPartyLibraries/USBlib/USB/Core/XMC4000/USBController_XMC4000.c **** 
 171:/opt/XMClib/XMC_Peripheral_Library_v2.1.16/ThirdPartyLibraries/USBlib/USB/Core/XMC4000/USBController_XMC4000.c **** 	case REQ_SetConfiguration:
 172:/opt/XMClib/XMC_Peripheral_Library_v2.1.16/ThirdPartyLibraries/USBlib/USB/Core/XMC4000/USBController_XMC4000.c **** 		/* Regardless the state update the configuration to unconfigure endpoints */
 173:/opt/XMClib/XMC_Peripheral_Library_v2.1.16/ThirdPartyLibraries/USBlib/USB/Core/XMC4000/USBController_XMC4000.c **** 		device.Configuration = Value;
 174:/opt/XMClib/XMC_Peripheral_Library_v2.1.16/ThirdPartyLibraries/USBlib/USB/Core/XMC4000/USBController_XMC4000.c **** 		EVENT_USB_Device_ConfigurationChanged();
 175:/opt/XMClib/XMC_Peripheral_Library_v2.1.16/ThirdPartyLibraries/USBlib/USB/Core/XMC4000/USBController_XMC4000.c **** 		/* when config 0 is choosen, we are back in address state */
 176:/opt/XMClib/XMC_Peripheral_Library_v2.1.16/ThirdPartyLibraries/USBlib/USB/Core/XMC4000/USBController_XMC4000.c **** 		if (Value == 0) {
 177:/opt/XMClib/XMC_Peripheral_Library_v2.1.16/ThirdPartyLibraries/USBlib/USB/Core/XMC4000/USBController_XMC4000.c **** 			USB_DeviceState = DEVICE_STATE_Addressed;
 178:/opt/XMClib/XMC_Peripheral_Library_v2.1.16/ThirdPartyLibraries/USBlib/USB/Core/XMC4000/USBController_XMC4000.c **** 			break;
 179:/opt/XMClib/XMC_Peripheral_Library_v2.1.16/ThirdPartyLibraries/USBlib/USB/Core/XMC4000/USBController_XMC4000.c **** 		}
 180:/opt/XMClib/XMC_Peripheral_Library_v2.1.16/ThirdPartyLibraries/USBlib/USB/Core/XMC4000/USBController_XMC4000.c **** 		/* go ahead only with vailid config. (must be set in event) */
 181:/opt/XMClib/XMC_Peripheral_Library_v2.1.16/ThirdPartyLibraries/USBlib/USB/Core/XMC4000/USBController_XMC4000.c **** 		if (device.IsConfigured == 1)
 182:/opt/XMClib/XMC_Peripheral_Library_v2.1.16/ThirdPartyLibraries/USBlib/USB/Core/XMC4000/USBController_XMC4000.c **** 			USB_DeviceState = DEVICE_STATE_Configured;
 183:/opt/XMClib/XMC_Peripheral_Library_v2.1.16/ThirdPartyLibraries/USBlib/USB/Core/XMC4000/USBController_XMC4000.c **** 		else
 184:/opt/XMClib/XMC_Peripheral_Library_v2.1.16/ThirdPartyLibraries/USBlib/USB/Core/XMC4000/USBController_XMC4000.c **** 			USBD_HandleEP0_Stall();
 185:/opt/XMClib/XMC_Peripheral_Library_v2.1.16/ThirdPartyLibraries/USBlib/USB/Core/XMC4000/USBController_XMC4000.c **** 		break;
 186:/opt/XMClib/XMC_Peripheral_Library_v2.1.16/ThirdPartyLibraries/USBlib/USB/Core/XMC4000/USBController_XMC4000.c **** 
 187:/opt/XMClib/XMC_Peripheral_Library_v2.1.16/ThirdPartyLibraries/USBlib/USB/Core/XMC4000/USBController_XMC4000.c **** 	case REQ_SetDescriptor:
 188:/opt/XMClib/XMC_Peripheral_Library_v2.1.16/ThirdPartyLibraries/USBlib/USB/Core/XMC4000/USBController_XMC4000.c **** 		/* Set Descriptor not supported, so stall */
 189:/opt/XMClib/XMC_Peripheral_Library_v2.1.16/ThirdPartyLibraries/USBlib/USB/Core/XMC4000/USBController_XMC4000.c **** 		USBD_HandleEP0_Stall();
 190:/opt/XMClib/XMC_Peripheral_Library_v2.1.16/ThirdPartyLibraries/USBlib/USB/Core/XMC4000/USBController_XMC4000.c **** 		break;
 191:/opt/XMClib/XMC_Peripheral_Library_v2.1.16/ThirdPartyLibraries/USBlib/USB/Core/XMC4000/USBController_XMC4000.c **** 
 192:/opt/XMClib/XMC_Peripheral_Library_v2.1.16/ThirdPartyLibraries/USBlib/USB/Core/XMC4000/USBController_XMC4000.c **** 	case REQ_SetInterface:
 193:/opt/XMClib/XMC_Peripheral_Library_v2.1.16/ThirdPartyLibraries/USBlib/USB/Core/XMC4000/USBController_XMC4000.c **** 		if (USB_DeviceState == DEVICE_STATE_Configured) {
 194:/opt/XMClib/XMC_Peripheral_Library_v2.1.16/ThirdPartyLibraries/USBlib/USB/Core/XMC4000/USBController_XMC4000.c **** 			/* TODO: Check if interface and altsetting exists and configuration is allowed, else stall */
 195:/opt/XMClib/XMC_Peripheral_Library_v2.1.16/ThirdPartyLibraries/USBlib/USB/Core/XMC4000/USBController_XMC4000.c **** 			device.InterfaceSettings[USB_ControlRequest.wIndex] = USB_ControlRequest.wValue;
 196:/opt/XMClib/XMC_Peripheral_Library_v2.1.16/ThirdPartyLibraries/USBlib/USB/Core/XMC4000/USBController_XMC4000.c **** 			break;
 197:/opt/XMClib/XMC_Peripheral_Library_v2.1.16/ThirdPartyLibraries/USBlib/USB/Core/XMC4000/USBController_XMC4000.c **** 		}
 198:/opt/XMClib/XMC_Peripheral_Library_v2.1.16/ThirdPartyLibraries/USBlib/USB/Core/XMC4000/USBController_XMC4000.c **** 		if (USB_DeviceState == DEVICE_STATE_Addressed) {
 199:/opt/XMClib/XMC_Peripheral_Library_v2.1.16/ThirdPartyLibraries/USBlib/USB/Core/XMC4000/USBController_XMC4000.c **** 			USBD_HandleEP0_Stall();
 200:/opt/XMClib/XMC_Peripheral_Library_v2.1.16/ThirdPartyLibraries/USBlib/USB/Core/XMC4000/USBController_XMC4000.c **** 			break;
 201:/opt/XMClib/XMC_Peripheral_Library_v2.1.16/ThirdPartyLibraries/USBlib/USB/Core/XMC4000/USBController_XMC4000.c **** 		}
 202:/opt/XMClib/XMC_Peripheral_Library_v2.1.16/ThirdPartyLibraries/USBlib/USB/Core/XMC4000/USBController_XMC4000.c **** 		break;
 203:/opt/XMClib/XMC_Peripheral_Library_v2.1.16/ThirdPartyLibraries/USBlib/USB/Core/XMC4000/USBController_XMC4000.c **** 
 204:/opt/XMClib/XMC_Peripheral_Library_v2.1.16/ThirdPartyLibraries/USBlib/USB/Core/XMC4000/USBController_XMC4000.c **** 	case REQ_SetFeature:
 205:/opt/XMClib/XMC_Peripheral_Library_v2.1.16/ThirdPartyLibraries/USBlib/USB/Core/XMC4000/USBController_XMC4000.c **** 		/* we do not support test mode */
 206:/opt/XMClib/XMC_Peripheral_Library_v2.1.16/ThirdPartyLibraries/USBlib/USB/Core/XMC4000/USBController_XMC4000.c **** 		if (Value == FEATURE_SEL_TestMode) {
 207:/opt/XMClib/XMC_Peripheral_Library_v2.1.16/ThirdPartyLibraries/USBlib/USB/Core/XMC4000/USBController_XMC4000.c **** 			USBD_HandleEP0_Stall();
 208:/opt/XMClib/XMC_Peripheral_Library_v2.1.16/ThirdPartyLibraries/USBlib/USB/Core/XMC4000/USBController_XMC4000.c **** 			break;
 209:/opt/XMClib/XMC_Peripheral_Library_v2.1.16/ThirdPartyLibraries/USBlib/USB/Core/XMC4000/USBController_XMC4000.c **** 		}
 210:/opt/XMClib/XMC_Peripheral_Library_v2.1.16/ThirdPartyLibraries/USBlib/USB/Core/XMC4000/USBController_XMC4000.c **** 		/* configured state */
 211:/opt/XMClib/XMC_Peripheral_Library_v2.1.16/ThirdPartyLibraries/USBlib/USB/Core/XMC4000/USBController_XMC4000.c **** 		if (USB_DeviceState == DEVICE_STATE_Configured) {
 212:/opt/XMClib/XMC_Peripheral_Library_v2.1.16/ThirdPartyLibraries/USBlib/USB/Core/XMC4000/USBController_XMC4000.c **** 			switch (Value) {
 213:/opt/XMClib/XMC_Peripheral_Library_v2.1.16/ThirdPartyLibraries/USBlib/USB/Core/XMC4000/USBController_XMC4000.c **** 			case FEATURE_SEL_DeviceRemoteWakeup:
 214:/opt/XMClib/XMC_Peripheral_Library_v2.1.16/ThirdPartyLibraries/USBlib/USB/Core/XMC4000/USBController_XMC4000.c **** 				device.RemoteWakeUp = 1;
 215:/opt/XMClib/XMC_Peripheral_Library_v2.1.16/ThirdPartyLibraries/USBlib/USB/Core/XMC4000/USBController_XMC4000.c **** 				break;
 216:/opt/XMClib/XMC_Peripheral_Library_v2.1.16/ThirdPartyLibraries/USBlib/USB/Core/XMC4000/USBController_XMC4000.c **** 			case FEATURE_SEL_EndpointHalt:
 217:/opt/XMClib/XMC_Peripheral_Library_v2.1.16/ThirdPartyLibraries/USBlib/USB/Core/XMC4000/USBController_XMC4000.c **** 				Index = USB_ControlRequest.wIndex & 0xFF & (uint8_t)XMC_USBD_ENDPOINT_NUMBER_MASK;
 218:/opt/XMClib/XMC_Peripheral_Library_v2.1.16/ThirdPartyLibraries/USBlib/USB/Core/XMC4000/USBController_XMC4000.c **** 				if (device.Endpoints[Index].IsConfigured == 0)
 219:/opt/XMClib/XMC_Peripheral_Library_v2.1.16/ThirdPartyLibraries/USBlib/USB/Core/XMC4000/USBController_XMC4000.c **** 					USBD_HandleEP0_Stall();
 220:/opt/XMClib/XMC_Peripheral_Library_v2.1.16/ThirdPartyLibraries/USBlib/USB/Core/XMC4000/USBController_XMC4000.c **** 				else {
 221:/opt/XMClib/XMC_Peripheral_Library_v2.1.16/ThirdPartyLibraries/USBlib/USB/Core/XMC4000/USBController_XMC4000.c **** 					device.Endpoints[Index].IsHalted = 1;
 222:/opt/XMClib/XMC_Peripheral_Library_v2.1.16/ThirdPartyLibraries/USBlib/USB/Core/XMC4000/USBController_XMC4000.c **** 					device.Driver->EndpointStall(USB_ControlRequest.wIndex,1);
 223:/opt/XMClib/XMC_Peripheral_Library_v2.1.16/ThirdPartyLibraries/USBlib/USB/Core/XMC4000/USBController_XMC4000.c **** 				}
 224:/opt/XMClib/XMC_Peripheral_Library_v2.1.16/ThirdPartyLibraries/USBlib/USB/Core/XMC4000/USBController_XMC4000.c **** 				break;
 225:/opt/XMClib/XMC_Peripheral_Library_v2.1.16/ThirdPartyLibraries/USBlib/USB/Core/XMC4000/USBController_XMC4000.c **** 			}
 226:/opt/XMClib/XMC_Peripheral_Library_v2.1.16/ThirdPartyLibraries/USBlib/USB/Core/XMC4000/USBController_XMC4000.c **** 			break;
 227:/opt/XMClib/XMC_Peripheral_Library_v2.1.16/ThirdPartyLibraries/USBlib/USB/Core/XMC4000/USBController_XMC4000.c **** 		}
 228:/opt/XMClib/XMC_Peripheral_Library_v2.1.16/ThirdPartyLibraries/USBlib/USB/Core/XMC4000/USBController_XMC4000.c **** 		/* when addressed, only ep0 can be halted */
 229:/opt/XMClib/XMC_Peripheral_Library_v2.1.16/ThirdPartyLibraries/USBlib/USB/Core/XMC4000/USBController_XMC4000.c **** 		if (USB_DeviceState == DEVICE_STATE_Addressed) {
 230:/opt/XMClib/XMC_Peripheral_Library_v2.1.16/ThirdPartyLibraries/USBlib/USB/Core/XMC4000/USBController_XMC4000.c **** 			if (Value == FEATURE_SEL_EndpointHalt &&
 231:/opt/XMClib/XMC_Peripheral_Library_v2.1.16/ThirdPartyLibraries/USBlib/USB/Core/XMC4000/USBController_XMC4000.c **** 					(USB_ControlRequest.bmRequestType & 0x3) == REQREC_ENDPOINT &&
 232:/opt/XMClib/XMC_Peripheral_Library_v2.1.16/ThirdPartyLibraries/USBlib/USB/Core/XMC4000/USBController_XMC4000.c **** 					(USB_ControlRequest.wIndex & 0x00FF) == 0x0) {
 233:/opt/XMClib/XMC_Peripheral_Library_v2.1.16/ThirdPartyLibraries/USBlib/USB/Core/XMC4000/USBController_XMC4000.c **** 				device.Endpoints[0].IsHalted = 1;
 234:/opt/XMClib/XMC_Peripheral_Library_v2.1.16/ThirdPartyLibraries/USBlib/USB/Core/XMC4000/USBController_XMC4000.c **** 				USBD_HandleEP0_Stall();
 235:/opt/XMClib/XMC_Peripheral_Library_v2.1.16/ThirdPartyLibraries/USBlib/USB/Core/XMC4000/USBController_XMC4000.c **** 				break;
 236:/opt/XMClib/XMC_Peripheral_Library_v2.1.16/ThirdPartyLibraries/USBlib/USB/Core/XMC4000/USBController_XMC4000.c **** 			}
 237:/opt/XMClib/XMC_Peripheral_Library_v2.1.16/ThirdPartyLibraries/USBlib/USB/Core/XMC4000/USBController_XMC4000.c **** 		}
 238:/opt/XMClib/XMC_Peripheral_Library_v2.1.16/ThirdPartyLibraries/USBlib/USB/Core/XMC4000/USBController_XMC4000.c **** 		/* default behaviour is stall */
 239:/opt/XMClib/XMC_Peripheral_Library_v2.1.16/ThirdPartyLibraries/USBlib/USB/Core/XMC4000/USBController_XMC4000.c **** 		USBD_HandleEP0_Stall();
 240:/opt/XMClib/XMC_Peripheral_Library_v2.1.16/ThirdPartyLibraries/USBlib/USB/Core/XMC4000/USBController_XMC4000.c **** 		break;
 241:/opt/XMClib/XMC_Peripheral_Library_v2.1.16/ThirdPartyLibraries/USBlib/USB/Core/XMC4000/USBController_XMC4000.c **** 
 242:/opt/XMClib/XMC_Peripheral_Library_v2.1.16/ThirdPartyLibraries/USBlib/USB/Core/XMC4000/USBController_XMC4000.c **** 	case REQ_SynchFrame:
 243:/opt/XMClib/XMC_Peripheral_Library_v2.1.16/ThirdPartyLibraries/USBlib/USB/Core/XMC4000/USBController_XMC4000.c **** 		/* Not yet supported */
 244:/opt/XMClib/XMC_Peripheral_Library_v2.1.16/ThirdPartyLibraries/USBlib/USB/Core/XMC4000/USBController_XMC4000.c **** 		USBD_HandleEP0_Stall();
 245:/opt/XMClib/XMC_Peripheral_Library_v2.1.16/ThirdPartyLibraries/USBlib/USB/Core/XMC4000/USBController_XMC4000.c **** 		break;
 246:/opt/XMClib/XMC_Peripheral_Library_v2.1.16/ThirdPartyLibraries/USBlib/USB/Core/XMC4000/USBController_XMC4000.c **** 
 247:/opt/XMClib/XMC_Peripheral_Library_v2.1.16/ThirdPartyLibraries/USBlib/USB/Core/XMC4000/USBController_XMC4000.c **** 	default:
 248:/opt/XMClib/XMC_Peripheral_Library_v2.1.16/ThirdPartyLibraries/USBlib/USB/Core/XMC4000/USBController_XMC4000.c **** 		USBD_HandleEP0_Stall();
 249:/opt/XMClib/XMC_Peripheral_Library_v2.1.16/ThirdPartyLibraries/USBlib/USB/Core/XMC4000/USBController_XMC4000.c **** 	}
 250:/opt/XMClib/XMC_Peripheral_Library_v2.1.16/ThirdPartyLibraries/USBlib/USB/Core/XMC4000/USBController_XMC4000.c **** 	device.IsSetupRecieved = 0;
 251:/opt/XMClib/XMC_Peripheral_Library_v2.1.16/ThirdPartyLibraries/USBlib/USB/Core/XMC4000/USBController_XMC4000.c **** }
 252:/opt/XMClib/XMC_Peripheral_Library_v2.1.16/ThirdPartyLibraries/USBlib/USB/Core/XMC4000/USBController_XMC4000.c **** 
 253:/opt/XMClib/XMC_Peripheral_Library_v2.1.16/ThirdPartyLibraries/USBlib/USB/Core/XMC4000/USBController_XMC4000.c **** /**
 254:/opt/XMClib/XMC_Peripheral_Library_v2.1.16/ThirdPartyLibraries/USBlib/USB/Core/XMC4000/USBController_XMC4000.c ****  * \brief Handle complete IN transfer on EP0
 255:/opt/XMClib/XMC_Peripheral_Library_v2.1.16/ThirdPartyLibraries/USBlib/USB/Core/XMC4000/USBController_XMC4000.c ****  *
 256:/opt/XMClib/XMC_Peripheral_Library_v2.1.16/ThirdPartyLibraries/USBlib/USB/Core/XMC4000/USBController_XMC4000.c ****  * In \ref IN_DATA state it starts a receive and switches to \ref OUT_STATUS state.
 257:/opt/XMClib/XMC_Peripheral_Library_v2.1.16/ThirdPartyLibraries/USBlib/USB/Core/XMC4000/USBController_XMC4000.c ****  * In \ref IN_STATUS state its starts a new read of setup packets and switches to \ref IDLE.
 258:/opt/XMClib/XMC_Peripheral_Library_v2.1.16/ThirdPartyLibraries/USBlib/USB/Core/XMC4000/USBController_XMC4000.c ****  */
 259:/opt/XMClib/XMC_Peripheral_Library_v2.1.16/ThirdPartyLibraries/USBlib/USB/Core/XMC4000/USBController_XMC4000.c **** void USBD_HandleEP0_IN() {
  28              		.loc 1 259 6 view -0
  29              		.cfi_startproc
  30              		@ args = 0, pretend = 0, frame = 0
  31              		@ frame_needed = 0, uses_anonymous_args = 0
 260:/opt/XMClib/XMC_Peripheral_Library_v2.1.16/ThirdPartyLibraries/USBlib/USB/Core/XMC4000/USBController_XMC4000.c **** 	if (device.EP0_State == IN_DATA) {
 261:/opt/XMClib/XMC_Peripheral_Library_v2.1.16/ThirdPartyLibraries/USBlib/USB/Core/XMC4000/USBController_XMC4000.c **** 		/* Read zero length out data packet */
 262:/opt/XMClib/XMC_Peripheral_Library_v2.1.16/ThirdPartyLibraries/USBlib/USB/Core/XMC4000/USBController_XMC4000.c **** 		device.Driver->EndpointReadStart(0,0);
 263:/opt/XMClib/XMC_Peripheral_Library_v2.1.16/ThirdPartyLibraries/USBlib/USB/Core/XMC4000/USBController_XMC4000.c **** 		device.EP0_State = OUT_STATUS;
 264:/opt/XMClib/XMC_Peripheral_Library_v2.1.16/ThirdPartyLibraries/USBlib/USB/Core/XMC4000/USBController_XMC4000.c **** 	}
 265:/opt/XMClib/XMC_Peripheral_Library_v2.1.16/ThirdPartyLibraries/USBlib/USB/Core/XMC4000/USBController_XMC4000.c **** 	if (device.EP0_State == IN_STATUS) {
 266:/opt/XMClib/XMC_Peripheral_Library_v2.1.16/ThirdPartyLibraries/USBlib/USB/Core/XMC4000/USBController_XMC4000.c **** 		/* Request new setup packet */
 267:/opt/XMClib/XMC_Peripheral_Library_v2.1.16/ThirdPartyLibraries/USBlib/USB/Core/XMC4000/USBController_XMC4000.c **** 		device.Driver->EndpointReadStart(device.Endpoints[0].Address,24);
  32              		.loc 1 267 3 view .LVU1
 259:/opt/XMClib/XMC_Peripheral_Library_v2.1.16/ThirdPartyLibraries/USBlib/USB/Core/XMC4000/USBController_XMC4000.c **** 	if (device.EP0_State == IN_DATA) {
  33              		.loc 1 259 6 is_stmt 0 view .LVU2
  34 0000 10B5     		push	{r4, lr}
  35              	.LCFI0:
  36              		.cfi_def_cfa_offset 8
  37              		.cfi_offset 4, -8
  38              		.cfi_offset 14, -4
  39              		.loc 1 267 3 view .LVU3
  40 0002 054C     		ldr	r4, .L4
  41              		.loc 1 267 16 view .LVU4
  42 0004 2368     		ldr	r3, [r4]
  43              		.loc 1 267 3 view .LVU5
  44 0006 2079     		ldrb	r0, [r4, #4]	@ zero_extendqisi2
  45 0008 9B6A     		ldr	r3, [r3, #40]
  46 000a 1821     		movs	r1, #24
  47 000c 9847     		blx	r3
  48              	.LVL0:
 268:/opt/XMClib/XMC_Peripheral_Library_v2.1.16/ThirdPartyLibraries/USBlib/USB/Core/XMC4000/USBController_XMC4000.c **** 		device.EP0_State = IDLE;
  49              		.loc 1 268 3 is_stmt 1 view .LVU6
  50              		.loc 1 268 20 is_stmt 0 view .LVU7
  51 000e 0123     		movs	r3, #1
  52 0010 84F83B31 		strb	r3, [r4, #315]
 269:/opt/XMClib/XMC_Peripheral_Library_v2.1.16/ThirdPartyLibraries/USBlib/USB/Core/XMC4000/USBController_XMC4000.c **** 	}
 270:/opt/XMClib/XMC_Peripheral_Library_v2.1.16/ThirdPartyLibraries/USBlib/USB/Core/XMC4000/USBController_XMC4000.c **** }
  53              		.loc 1 270 1 view .LVU8
  54 0014 10BD     		pop	{r4, pc}
  55              	.L5:
  56 0016 00BF     		.align	2
  57              	.L4:
  58 0018 00000000 		.word	device
  59              		.cfi_endproc
  60              	.LFE198:
  62              		.thumb_set USBD_HandleEP0_OUT.part.0,USBD_HandleEP0_IN.part.0
  63              		.section	.text.USBD_HandleEP0_Stall,"ax",%progbits
  64              		.align	1
  65              		.p2align 2,,3
  66              		.global	USBD_HandleEP0_Stall
  67              		.syntax unified
  68              		.thumb
  69              		.thumb_func
  70              		.fpu fpv4-sp-d16
  72              	USBD_HandleEP0_Stall:
  73              	.LFB188:
  54:/opt/XMClib/XMC_Peripheral_Library_v2.1.16/ThirdPartyLibraries/USBlib/USB/Core/XMC4000/USBController_XMC4000.c **** 	/* When we stall ep0 as protocol stall, we go back into idle state and start a new read */
  74              		.loc 1 54 29 is_stmt 1 view -0
  75              		.cfi_startproc
  76              		@ args = 0, pretend = 0, frame = 0
  77              		@ frame_needed = 0, uses_anonymous_args = 0
  56:/opt/XMClib/XMC_Peripheral_Library_v2.1.16/ThirdPartyLibraries/USBlib/USB/Core/XMC4000/USBController_XMC4000.c **** 	device.EP0_State = IDLE;
  78              		.loc 1 56 2 view .LVU10
  54:/opt/XMClib/XMC_Peripheral_Library_v2.1.16/ThirdPartyLibraries/USBlib/USB/Core/XMC4000/USBController_XMC4000.c **** 	/* When we stall ep0 as protocol stall, we go back into idle state and start a new read */
  79              		.loc 1 54 29 is_stmt 0 view .LVU11
  80 0000 10B5     		push	{r4, lr}
  81              	.LCFI1:
  82              		.cfi_def_cfa_offset 8
  83              		.cfi_offset 4, -8
  84              		.cfi_offset 14, -4
  56:/opt/XMClib/XMC_Peripheral_Library_v2.1.16/ThirdPartyLibraries/USBlib/USB/Core/XMC4000/USBController_XMC4000.c **** 	device.EP0_State = IDLE;
  85              		.loc 1 56 8 view .LVU12
  86 0002 084C     		ldr	r4, .L8
  56:/opt/XMClib/XMC_Peripheral_Library_v2.1.16/ThirdPartyLibraries/USBlib/USB/Core/XMC4000/USBController_XMC4000.c **** 	device.EP0_State = IDLE;
  87              		.loc 1 56 15 view .LVU13
  88 0004 2368     		ldr	r3, [r4]
  56:/opt/XMClib/XMC_Peripheral_Library_v2.1.16/ThirdPartyLibraries/USBlib/USB/Core/XMC4000/USBController_XMC4000.c **** 	device.EP0_State = IDLE;
  89              		.loc 1 56 2 view .LVU14
  90 0006 0121     		movs	r1, #1
  91 0008 5B6A     		ldr	r3, [r3, #36]
  92 000a 8020     		movs	r0, #128
  93 000c 9847     		blx	r3
  94              	.LVL1:
  57:/opt/XMClib/XMC_Peripheral_Library_v2.1.16/ThirdPartyLibraries/USBlib/USB/Core/XMC4000/USBController_XMC4000.c **** 	device.Driver->EndpointReadStart(0,24);
  95              		.loc 1 57 2 is_stmt 1 view .LVU15
  58:/opt/XMClib/XMC_Peripheral_Library_v2.1.16/ThirdPartyLibraries/USBlib/USB/Core/XMC4000/USBController_XMC4000.c **** }
  96              		.loc 1 58 15 is_stmt 0 view .LVU16
  97 000e 2368     		ldr	r3, [r4]
  57:/opt/XMClib/XMC_Peripheral_Library_v2.1.16/ThirdPartyLibraries/USBlib/USB/Core/XMC4000/USBController_XMC4000.c **** 	device.Driver->EndpointReadStart(0,24);
  98              		.loc 1 57 19 view .LVU17
  99 0010 0122     		movs	r2, #1
 100 0012 84F83B21 		strb	r2, [r4, #315]
  58:/opt/XMClib/XMC_Peripheral_Library_v2.1.16/ThirdPartyLibraries/USBlib/USB/Core/XMC4000/USBController_XMC4000.c **** }
 101              		.loc 1 58 2 is_stmt 1 view .LVU18
 102 0016 9B6A     		ldr	r3, [r3, #40]
  59:/opt/XMClib/XMC_Peripheral_Library_v2.1.16/ThirdPartyLibraries/USBlib/USB/Core/XMC4000/USBController_XMC4000.c **** 
 103              		.loc 1 59 1 is_stmt 0 view .LVU19
 104 0018 BDE81040 		pop	{r4, lr}
 105              	.LCFI2:
 106              		.cfi_restore 14
 107              		.cfi_restore 4
 108              		.cfi_def_cfa_offset 0
  58:/opt/XMClib/XMC_Peripheral_Library_v2.1.16/ThirdPartyLibraries/USBlib/USB/Core/XMC4000/USBController_XMC4000.c **** }
 109              		.loc 1 58 2 view .LVU20
 110 001c 1821     		movs	r1, #24
 111 001e 0020     		movs	r0, #0
 112 0020 1847     		bx	r3
 113              	.LVL2:
 114              	.L9:
 115 0022 00BF     		.align	2
 116              	.L8:
 117 0024 00000000 		.word	device
 118              		.cfi_endproc
 119              	.LFE188:
 121              		.section	.text.USB_Device_ProcessControlRequest,"ax",%progbits
 122              		.align	1
 123              		.p2align 2,,3
 124              		.global	USB_Device_ProcessControlRequest
 125              		.syntax unified
 126              		.thumb
 127              		.thumb_func
 128              		.fpu fpv4-sp-d16
 130              	USB_Device_ProcessControlRequest:
 131              	.LFB189:
  72:/opt/XMClib/XMC_Peripheral_Library_v2.1.16/ThirdPartyLibraries/USBlib/USB/Core/XMC4000/USBController_XMC4000.c **** 	uint32_t length = 0,ret;
 132              		.loc 1 72 41 is_stmt 1 view -0
 133              		.cfi_startproc
 134              		@ args = 0, pretend = 0, frame = 8
 135              		@ frame_needed = 0, uses_anonymous_args = 0
  73:/opt/XMClib/XMC_Peripheral_Library_v2.1.16/ThirdPartyLibraries/USBlib/USB/Core/XMC4000/USBController_XMC4000.c **** 	uint16_t status = 0;
 136              		.loc 1 73 2 view .LVU22
 137              	.LVL3:
  74:/opt/XMClib/XMC_Peripheral_Library_v2.1.16/ThirdPartyLibraries/USBlib/USB/Core/XMC4000/USBController_XMC4000.c **** 	void *buffer;
 138              		.loc 1 74 2 view .LVU23
  72:/opt/XMClib/XMC_Peripheral_Library_v2.1.16/ThirdPartyLibraries/USBlib/USB/Core/XMC4000/USBController_XMC4000.c **** 	uint32_t length = 0,ret;
 139              		.loc 1 72 41 is_stmt 0 view .LVU24
 140 0000 70B5     		push	{r4, r5, r6, lr}
 141              	.LCFI3:
 142              		.cfi_def_cfa_offset 16
 143              		.cfi_offset 4, -16
 144              		.cfi_offset 5, -12
 145              		.cfi_offset 6, -8
 146              		.cfi_offset 14, -4
  79:/opt/XMClib/XMC_Peripheral_Library_v2.1.16/ThirdPartyLibraries/USBlib/USB/Core/XMC4000/USBController_XMC4000.c **** 
 147              		.loc 1 79 28 view .LVU25
 148 0002 A94D     		ldr	r5, .L63
  83:/opt/XMClib/XMC_Peripheral_Library_v2.1.16/ThirdPartyLibraries/USBlib/USB/Core/XMC4000/USBController_XMC4000.c **** 		return;
 149              		.loc 1 83 13 view .LVU26
 150 0004 A94C     		ldr	r4, .L63+4
  79:/opt/XMClib/XMC_Peripheral_Library_v2.1.16/ThirdPartyLibraries/USBlib/USB/Core/XMC4000/USBController_XMC4000.c **** 
 151              		.loc 1 79 28 view .LVU27
 152 0006 6E88     		ldrh	r6, [r5, #2]	@ unaligned
  72:/opt/XMClib/XMC_Peripheral_Library_v2.1.16/ThirdPartyLibraries/USBlib/USB/Core/XMC4000/USBController_XMC4000.c **** 	uint32_t length = 0,ret;
 153              		.loc 1 72 41 view .LVU28
 154 0008 82B0     		sub	sp, sp, #8
 155              	.LCFI4:
 156              		.cfi_def_cfa_offset 24
  74:/opt/XMClib/XMC_Peripheral_Library_v2.1.16/ThirdPartyLibraries/USBlib/USB/Core/XMC4000/USBController_XMC4000.c **** 	void *buffer;
 157              		.loc 1 74 11 view .LVU29
 158 000a 0023     		movs	r3, #0
 159 000c ADF80230 		strh	r3, [sp, #2]	@ movhi
  75:/opt/XMClib/XMC_Peripheral_Library_v2.1.16/ThirdPartyLibraries/USBlib/USB/Core/XMC4000/USBController_XMC4000.c **** 	uint8_t Value;
 160              		.loc 1 75 2 is_stmt 1 view .LVU30
  76:/opt/XMClib/XMC_Peripheral_Library_v2.1.16/ThirdPartyLibraries/USBlib/USB/Core/XMC4000/USBController_XMC4000.c **** 	uint16_t Index;
 161              		.loc 1 76 2 view .LVU31
  77:/opt/XMClib/XMC_Peripheral_Library_v2.1.16/ThirdPartyLibraries/USBlib/USB/Core/XMC4000/USBController_XMC4000.c **** 
 162              		.loc 1 77 2 view .LVU32
  79:/opt/XMClib/XMC_Peripheral_Library_v2.1.16/ThirdPartyLibraries/USBlib/USB/Core/XMC4000/USBController_XMC4000.c **** 
 163              		.loc 1 79 2 view .LVU33
 164              	.LVL4:
  82:/opt/XMClib/XMC_Peripheral_Library_v2.1.16/ThirdPartyLibraries/USBlib/USB/Core/XMC4000/USBController_XMC4000.c **** 	if (!device.IsSetupRecieved)
 165              		.loc 1 82 2 view .LVU34
 166 0010 FFF7FEFF 		bl	EVENT_USB_Device_ControlRequest
 167              	.LVL5:
  83:/opt/XMClib/XMC_Peripheral_Library_v2.1.16/ThirdPartyLibraries/USBlib/USB/Core/XMC4000/USBController_XMC4000.c **** 		return;
 168              		.loc 1 83 2 view .LVU35
  83:/opt/XMClib/XMC_Peripheral_Library_v2.1.16/ThirdPartyLibraries/USBlib/USB/Core/XMC4000/USBController_XMC4000.c **** 		return;
 169              		.loc 1 83 13 is_stmt 0 view .LVU36
 170 0014 94F83E31 		ldrb	r3, [r4, #318]	@ zero_extendqisi2
  83:/opt/XMClib/XMC_Peripheral_Library_v2.1.16/ThirdPartyLibraries/USBlib/USB/Core/XMC4000/USBController_XMC4000.c **** 		return;
 171              		.loc 1 83 5 view .LVU37
 172 0018 9B07     		lsls	r3, r3, #30
 173 001a 27D5     		bpl	.L10
 174 001c 6B78     		ldrb	r3, [r5, #1]	@ zero_extendqisi2
  79:/opt/XMClib/XMC_Peripheral_Library_v2.1.16/ThirdPartyLibraries/USBlib/USB/Core/XMC4000/USBController_XMC4000.c **** 
 175              		.loc 1 79 8 view .LVU38
 176 001e F6B2     		uxtb	r6, r6
  87:/opt/XMClib/XMC_Peripheral_Library_v2.1.16/ThirdPartyLibraries/USBlib/USB/Core/XMC4000/USBController_XMC4000.c **** 	case REQ_ClearFeature:
 177              		.loc 1 87 2 is_stmt 1 view .LVU39
 178 0020 0C2B     		cmp	r3, #12
 179 0022 10D8     		bhi	.L13
 180 0024 DFE803F0 		tbb	[pc, r3]
 181              	.L15:
 182 0028 32       		.byte	(.L25-.L15)/2
 183 0029 AD       		.byte	(.L24-.L15)/2
 184 002a 0F       		.byte	(.L13-.L15)/2
 185 002b 7B       		.byte	(.L23-.L15)/2
 186 002c 0F       		.byte	(.L13-.L15)/2
 187 002d A3       		.byte	(.L22-.L15)/2
 188 002e 57       		.byte	(.L21-.L15)/2
 189 002f 0F       		.byte	(.L13-.L15)/2
 190 0030 64       		.byte	(.L19-.L15)/2
 191 0031 6B       		.byte	(.L18-.L15)/2
 192 0032 24       		.byte	(.L17-.L15)/2
 193 0033 07       		.byte	(.L16-.L15)/2
 194 0034 0F       		.byte	(.L13-.L15)/2
 195 0035 00       		.p2align 1
 196              	.L16:
 193:/opt/XMClib/XMC_Peripheral_Library_v2.1.16/ThirdPartyLibraries/USBlib/USB/Core/XMC4000/USBController_XMC4000.c **** 			/* TODO: Check if interface and altsetting exists and configuration is allowed, else stall */
 197              		.loc 1 193 3 view .LVU40
 193:/opt/XMClib/XMC_Peripheral_Library_v2.1.16/ThirdPartyLibraries/USBlib/USB/Core/XMC4000/USBController_XMC4000.c **** 			/* TODO: Check if interface and altsetting exists and configuration is allowed, else stall */
 198              		.loc 1 193 23 is_stmt 0 view .LVU41
 199 0036 9E4B     		ldr	r3, .L63+8
 200 0038 1A78     		ldrb	r2, [r3]	@ zero_extendqisi2
 193:/opt/XMClib/XMC_Peripheral_Library_v2.1.16/ThirdPartyLibraries/USBlib/USB/Core/XMC4000/USBController_XMC4000.c **** 			/* TODO: Check if interface and altsetting exists and configuration is allowed, else stall */
 201              		.loc 1 193 6 view .LVU42
 202 003a 042A     		cmp	r2, #4
 203 003c 00F0D880 		beq	.L57
 204              	.L41:
 198:/opt/XMClib/XMC_Peripheral_Library_v2.1.16/ThirdPartyLibraries/USBlib/USB/Core/XMC4000/USBController_XMC4000.c **** 			USBD_HandleEP0_Stall();
 205              		.loc 1 198 3 is_stmt 1 view .LVU43
 198:/opt/XMClib/XMC_Peripheral_Library_v2.1.16/ThirdPartyLibraries/USBlib/USB/Core/XMC4000/USBController_XMC4000.c **** 			USBD_HandleEP0_Stall();
 206              		.loc 1 198 23 is_stmt 0 view .LVU44
 207 0040 1B78     		ldrb	r3, [r3]	@ zero_extendqisi2
 198:/opt/XMClib/XMC_Peripheral_Library_v2.1.16/ThirdPartyLibraries/USBlib/USB/Core/XMC4000/USBController_XMC4000.c **** 			USBD_HandleEP0_Stall();
 208              		.loc 1 198 6 view .LVU45
 209 0042 032B     		cmp	r3, #3
 210 0044 0CD1     		bne	.L29
 211              	.L13:
 248:/opt/XMClib/XMC_Peripheral_Library_v2.1.16/ThirdPartyLibraries/USBlib/USB/Core/XMC4000/USBController_XMC4000.c **** 	}
 212              		.loc 1 248 3 is_stmt 1 view .LVU46
 213              	.LBB30:
 214              	.LBI30:
  54:/opt/XMClib/XMC_Peripheral_Library_v2.1.16/ThirdPartyLibraries/USBlib/USB/Core/XMC4000/USBController_XMC4000.c **** 	/* When we stall ep0 as protocol stall, we go back into idle state and start a new read */
 215              		.loc 1 54 6 view .LVU47
 216              	.LBB31:
  56:/opt/XMClib/XMC_Peripheral_Library_v2.1.16/ThirdPartyLibraries/USBlib/USB/Core/XMC4000/USBController_XMC4000.c **** 	device.EP0_State = IDLE;
 217              		.loc 1 56 2 view .LVU48
  56:/opt/XMClib/XMC_Peripheral_Library_v2.1.16/ThirdPartyLibraries/USBlib/USB/Core/XMC4000/USBController_XMC4000.c **** 	device.EP0_State = IDLE;
 218              		.loc 1 56 15 is_stmt 0 view .LVU49
 219 0046 2368     		ldr	r3, [r4]
  56:/opt/XMClib/XMC_Peripheral_Library_v2.1.16/ThirdPartyLibraries/USBlib/USB/Core/XMC4000/USBController_XMC4000.c **** 	device.EP0_State = IDLE;
 220              		.loc 1 56 2 view .LVU50
 221 0048 0121     		movs	r1, #1
 222 004a 5B6A     		ldr	r3, [r3, #36]
 223 004c 8020     		movs	r0, #128
 224 004e 9847     		blx	r3
 225              	.LVL6:
  57:/opt/XMClib/XMC_Peripheral_Library_v2.1.16/ThirdPartyLibraries/USBlib/USB/Core/XMC4000/USBController_XMC4000.c **** 	device.Driver->EndpointReadStart(0,24);
 226              		.loc 1 57 2 is_stmt 1 view .LVU51
  58:/opt/XMClib/XMC_Peripheral_Library_v2.1.16/ThirdPartyLibraries/USBlib/USB/Core/XMC4000/USBController_XMC4000.c **** }
 227              		.loc 1 58 15 is_stmt 0 view .LVU52
 228 0050 2368     		ldr	r3, [r4]
  57:/opt/XMClib/XMC_Peripheral_Library_v2.1.16/ThirdPartyLibraries/USBlib/USB/Core/XMC4000/USBController_XMC4000.c **** 	device.Driver->EndpointReadStart(0,24);
 229              		.loc 1 57 19 view .LVU53
 230 0052 0122     		movs	r2, #1
 231 0054 84F83B21 		strb	r2, [r4, #315]
  58:/opt/XMClib/XMC_Peripheral_Library_v2.1.16/ThirdPartyLibraries/USBlib/USB/Core/XMC4000/USBController_XMC4000.c **** }
 232              		.loc 1 58 2 is_stmt 1 view .LVU54
 233 0058 9B6A     		ldr	r3, [r3, #40]
 234 005a 1821     		movs	r1, #24
 235 005c 0020     		movs	r0, #0
 236 005e 9847     		blx	r3
 237              	.LVL7:
 238              	.L29:
  58:/opt/XMClib/XMC_Peripheral_Library_v2.1.16/ThirdPartyLibraries/USBlib/USB/Core/XMC4000/USBController_XMC4000.c **** }
 239              		.loc 1 58 2 is_stmt 0 view .LVU55
 240              	.LBE31:
 241              	.LBE30:
 250:/opt/XMClib/XMC_Peripheral_Library_v2.1.16/ThirdPartyLibraries/USBlib/USB/Core/XMC4000/USBController_XMC4000.c **** }
 242              		.loc 1 250 2 is_stmt 1 discriminator 1 view .LVU56
 250:/opt/XMClib/XMC_Peripheral_Library_v2.1.16/ThirdPartyLibraries/USBlib/USB/Core/XMC4000/USBController_XMC4000.c **** }
 243              		.loc 1 250 25 is_stmt 0 discriminator 1 view .LVU57
 244 0060 94F83E31 		ldrb	r3, [r4, #318]	@ zero_extendqisi2
 245 0064 6FF34103 		bfc	r3, #1, #1
 246 0068 84F83E31 		strb	r3, [r4, #318]
 247              	.L10:
 251:/opt/XMClib/XMC_Peripheral_Library_v2.1.16/ThirdPartyLibraries/USBlib/USB/Core/XMC4000/USBController_XMC4000.c **** 
 248              		.loc 1 251 1 view .LVU58
 249 006c 02B0     		add	sp, sp, #8
 250              	.LCFI5:
 251              		.cfi_remember_state
 252              		.cfi_def_cfa_offset 16
 253              		@ sp needed
 254 006e 70BD     		pop	{r4, r5, r6, pc}
 255              	.LVL8:
 256              	.L17:
 257              	.LCFI6:
 258              		.cfi_restore_state
 125:/opt/XMClib/XMC_Peripheral_Library_v2.1.16/ThirdPartyLibraries/USBlib/USB/Core/XMC4000/USBController_XMC4000.c **** 			device.Driver->EndpointWrite(0,&device.InterfaceSettings[USB_ControlRequest.wIndex],1);
 259              		.loc 1 125 3 is_stmt 1 view .LVU59
 125:/opt/XMClib/XMC_Peripheral_Library_v2.1.16/ThirdPartyLibraries/USBlib/USB/Core/XMC4000/USBController_XMC4000.c **** 			device.Driver->EndpointWrite(0,&device.InterfaceSettings[USB_ControlRequest.wIndex],1);
 260              		.loc 1 125 23 is_stmt 0 view .LVU60
 261 0070 8F4B     		ldr	r3, .L63+8
 262 0072 1A78     		ldrb	r2, [r3]	@ zero_extendqisi2
 125:/opt/XMClib/XMC_Peripheral_Library_v2.1.16/ThirdPartyLibraries/USBlib/USB/Core/XMC4000/USBController_XMC4000.c **** 			device.Driver->EndpointWrite(0,&device.InterfaceSettings[USB_ControlRequest.wIndex],1);
 263              		.loc 1 125 6 view .LVU61
 264 0074 042A     		cmp	r2, #4
 265 0076 E3D1     		bne	.L41
 126:/opt/XMClib/XMC_Peripheral_Library_v2.1.16/ThirdPartyLibraries/USBlib/USB/Core/XMC4000/USBController_XMC4000.c **** 			break;
 266              		.loc 1 126 4 is_stmt 1 view .LVU62
 126:/opt/XMClib/XMC_Peripheral_Library_v2.1.16/ThirdPartyLibraries/USBlib/USB/Core/XMC4000/USBController_XMC4000.c **** 			break;
 267              		.loc 1 126 35 is_stmt 0 view .LVU63
 268 0078 A988     		ldrh	r1, [r5, #4]	@ unaligned
 126:/opt/XMClib/XMC_Peripheral_Library_v2.1.16/ThirdPartyLibraries/USBlib/USB/Core/XMC4000/USBController_XMC4000.c **** 			break;
 269              		.loc 1 126 17 view .LVU64
 270 007a 2368     		ldr	r3, [r4]
 126:/opt/XMClib/XMC_Peripheral_Library_v2.1.16/ThirdPartyLibraries/USBlib/USB/Core/XMC4000/USBController_XMC4000.c **** 			break;
 271              		.loc 1 126 35 view .LVU65
 272 007c 01F59C71 		add	r1, r1, #312
 126:/opt/XMClib/XMC_Peripheral_Library_v2.1.16/ThirdPartyLibraries/USBlib/USB/Core/XMC4000/USBController_XMC4000.c **** 			break;
 273              		.loc 1 126 4 view .LVU66
 274 0080 1B6B     		ldr	r3, [r3, #48]
 275 0082 2144     		add	r1, r1, r4
 276 0084 0122     		movs	r2, #1
 277 0086 0020     		movs	r0, #0
 278 0088 9847     		blx	r3
 279              	.LVL9:
 127:/opt/XMClib/XMC_Peripheral_Library_v2.1.16/ThirdPartyLibraries/USBlib/USB/Core/XMC4000/USBController_XMC4000.c **** 		}
 280              		.loc 1 127 4 is_stmt 1 view .LVU67
 281 008a E9E7     		b	.L29
 282              	.L25:
 136:/opt/XMClib/XMC_Peripheral_Library_v2.1.16/ThirdPartyLibraries/USBlib/USB/Core/XMC4000/USBController_XMC4000.c **** 			status = device.RemoteWakeUp << 1 | device.SelfPowered;
 283              		.loc 1 136 3 view .LVU68
 284 008c 2878     		ldrb	r0, [r5]	@ zero_extendqisi2
 136:/opt/XMClib/XMC_Peripheral_Library_v2.1.16/ThirdPartyLibraries/USBlib/USB/Core/XMC4000/USBController_XMC4000.c **** 			status = device.RemoteWakeUp << 1 | device.SelfPowered;
 285              		.loc 1 136 6 is_stmt 0 view .LVU69
 286 008e 10F00300 		ands	r0, r0, #3
 287 0092 00F08C80 		beq	.L58
 141:/opt/XMClib/XMC_Peripheral_Library_v2.1.16/ThirdPartyLibraries/USBlib/USB/Core/XMC4000/USBController_XMC4000.c **** 			status = 0;
 288              		.loc 1 141 3 is_stmt 1 view .LVU70
 141:/opt/XMClib/XMC_Peripheral_Library_v2.1.16/ThirdPartyLibraries/USBlib/USB/Core/XMC4000/USBController_XMC4000.c **** 			status = 0;
 289              		.loc 1 141 6 is_stmt 0 view .LVU71
 290 0096 0128     		cmp	r0, #1
 291 0098 00F0E380 		beq	.L59
 150:/opt/XMClib/XMC_Peripheral_Library_v2.1.16/ThirdPartyLibraries/USBlib/USB/Core/XMC4000/USBController_XMC4000.c **** 			Index = USB_ControlRequest.wIndex & 0xFF & ENDPOINT_EPNUM_MASK;
 292              		.loc 1 150 3 is_stmt 1 view .LVU72
 150:/opt/XMClib/XMC_Peripheral_Library_v2.1.16/ThirdPartyLibraries/USBlib/USB/Core/XMC4000/USBController_XMC4000.c **** 			Index = USB_ControlRequest.wIndex & 0xFF & ENDPOINT_EPNUM_MASK;
 293              		.loc 1 150 6 is_stmt 0 view .LVU73
 294 009c 0228     		cmp	r0, #2
 295 009e D2D1     		bne	.L13
 151:/opt/XMClib/XMC_Peripheral_Library_v2.1.16/ThirdPartyLibraries/USBlib/USB/Core/XMC4000/USBController_XMC4000.c **** 			if ((USB_DeviceState == DEVICE_STATE_Configured || USB_ControlRequest.wIndex==0) &&
 296              		.loc 1 151 4 is_stmt 1 view .LVU74
 152:/opt/XMClib/XMC_Peripheral_Library_v2.1.16/ThirdPartyLibraries/USBlib/USB/Core/XMC4000/USBController_XMC4000.c **** 					device.Endpoints[Index].IsConfigured==1) {
 297              		.loc 1 152 25 is_stmt 0 view .LVU75
 298 00a0 834A     		ldr	r2, .L63+8
 151:/opt/XMClib/XMC_Peripheral_Library_v2.1.16/ThirdPartyLibraries/USBlib/USB/Core/XMC4000/USBController_XMC4000.c **** 			if ((USB_DeviceState == DEVICE_STATE_Configured || USB_ControlRequest.wIndex==0) &&
 299              		.loc 1 151 30 view .LVU76
 300 00a2 AB88     		ldrh	r3, [r5, #4]	@ unaligned
 301              	.LVL10:
 152:/opt/XMClib/XMC_Peripheral_Library_v2.1.16/ThirdPartyLibraries/USBlib/USB/Core/XMC4000/USBController_XMC4000.c **** 					device.Endpoints[Index].IsConfigured==1) {
 302              		.loc 1 152 4 is_stmt 1 view .LVU77
 152:/opt/XMClib/XMC_Peripheral_Library_v2.1.16/ThirdPartyLibraries/USBlib/USB/Core/XMC4000/USBController_XMC4000.c **** 					device.Endpoints[Index].IsConfigured==1) {
 303              		.loc 1 152 25 is_stmt 0 view .LVU78
 304 00a4 1278     		ldrb	r2, [r2]	@ zero_extendqisi2
 152:/opt/XMClib/XMC_Peripheral_Library_v2.1.16/ThirdPartyLibraries/USBlib/USB/Core/XMC4000/USBController_XMC4000.c **** 					device.Endpoints[Index].IsConfigured==1) {
 305              		.loc 1 152 7 view .LVU79
 306 00a6 042A     		cmp	r2, #4
 307 00a8 01D0     		beq	.L36
 152:/opt/XMClib/XMC_Peripheral_Library_v2.1.16/ThirdPartyLibraries/USBlib/USB/Core/XMC4000/USBController_XMC4000.c **** 					device.Endpoints[Index].IsConfigured==1) {
 308              		.loc 1 152 52 discriminator 2 view .LVU80
 309 00aa 002B     		cmp	r3, #0
 310 00ac CBD1     		bne	.L13
 311              	.L36:
 153:/opt/XMClib/XMC_Peripheral_Library_v2.1.16/ThirdPartyLibraries/USBlib/USB/Core/XMC4000/USBController_XMC4000.c **** 				status = device.Endpoints[Index].IsHalted;
 312              		.loc 1 153 29 discriminator 3 view .LVU81
 313 00ae 03F00F03 		and	r3, r3, #15
 314 00b2 2C22     		movs	r2, #44
 315 00b4 02FB0343 		mla	r3, r2, r3, r4
 316 00b8 1B7A     		ldrb	r3, [r3, #8]	@ zero_extendqisi2
 152:/opt/XMClib/XMC_Peripheral_Library_v2.1.16/ThirdPartyLibraries/USBlib/USB/Core/XMC4000/USBController_XMC4000.c **** 					device.Endpoints[Index].IsConfigured==1) {
 317              		.loc 1 152 85 discriminator 3 view .LVU82
 318 00ba D807     		lsls	r0, r3, #31
 319 00bc C3D5     		bpl	.L13
 154:/opt/XMClib/XMC_Peripheral_Library_v2.1.16/ThirdPartyLibraries/USBlib/USB/Core/XMC4000/USBController_XMC4000.c **** 				device.Driver->EndpointWrite(0,(uint8_t*)&status,2);
 320              		.loc 1 154 5 is_stmt 1 view .LVU83
 155:/opt/XMClib/XMC_Peripheral_Library_v2.1.16/ThirdPartyLibraries/USBlib/USB/Core/XMC4000/USBController_XMC4000.c **** 				break;
 321              		.loc 1 155 18 is_stmt 0 view .LVU84
 322 00be 2268     		ldr	r2, [r4]
 154:/opt/XMClib/XMC_Peripheral_Library_v2.1.16/ThirdPartyLibraries/USBlib/USB/Core/XMC4000/USBController_XMC4000.c **** 				device.Driver->EndpointWrite(0,(uint8_t*)&status,2);
 323              		.loc 1 154 37 view .LVU85
 324 00c0 C3F38003 		ubfx	r3, r3, #2, #1
 325 00c4 ADF80230 		strh	r3, [sp, #2]	@ movhi
 155:/opt/XMClib/XMC_Peripheral_Library_v2.1.16/ThirdPartyLibraries/USBlib/USB/Core/XMC4000/USBController_XMC4000.c **** 				break;
 326              		.loc 1 155 5 is_stmt 1 view .LVU86
 327 00c8 136B     		ldr	r3, [r2, #48]
 328 00ca 0222     		movs	r2, #2
 329 00cc 0DEB0201 		add	r1, sp, r2
 330 00d0 0020     		movs	r0, #0
 331 00d2 9847     		blx	r3
 332              	.LVL11:
 156:/opt/XMClib/XMC_Peripheral_Library_v2.1.16/ThirdPartyLibraries/USBlib/USB/Core/XMC4000/USBController_XMC4000.c **** 			}
 333              		.loc 1 156 5 view .LVU87
 334 00d4 C4E7     		b	.L29
 335              	.L21:
 112:/opt/XMClib/XMC_Peripheral_Library_v2.1.16/ThirdPartyLibraries/USBlib/USB/Core/XMC4000/USBController_XMC4000.c **** 		if (length==0)
 336              		.loc 1 112 3 view .LVU88
 112:/opt/XMClib/XMC_Peripheral_Library_v2.1.16/ThirdPartyLibraries/USBlib/USB/Core/XMC4000/USBController_XMC4000.c **** 		if (length==0)
 337              		.loc 1 112 83 is_stmt 0 view .LVU89
 338 00d6 A988     		ldrh	r1, [r5, #4]	@ unaligned
 112:/opt/XMClib/XMC_Peripheral_Library_v2.1.16/ThirdPartyLibraries/USBlib/USB/Core/XMC4000/USBController_XMC4000.c **** 		if (length==0)
 339              		.loc 1 112 12 view .LVU90
 340 00d8 6888     		ldrh	r0, [r5, #2]	@ unaligned
 341 00da C9B2     		uxtb	r1, r1
 342 00dc 01AA     		add	r2, sp, #4
 343 00de FFF7FEFF 		bl	CALLBACK_USB_GetDescriptor
 344              	.LVL12:
 113:/opt/XMClib/XMC_Peripheral_Library_v2.1.16/ThirdPartyLibraries/USBlib/USB/Core/XMC4000/USBController_XMC4000.c **** 			USBD_HandleEP0_Stall();
 345              		.loc 1 113 3 is_stmt 1 view .LVU91
 113:/opt/XMClib/XMC_Peripheral_Library_v2.1.16/ThirdPartyLibraries/USBlib/USB/Core/XMC4000/USBController_XMC4000.c **** 			USBD_HandleEP0_Stall();
 346              		.loc 1 113 6 is_stmt 0 view .LVU92
 347 00e2 0646     		mov	r6, r0
 348              	.LVL13:
 113:/opt/XMClib/XMC_Peripheral_Library_v2.1.16/ThirdPartyLibraries/USBlib/USB/Core/XMC4000/USBController_XMC4000.c **** 			USBD_HandleEP0_Stall();
 349              		.loc 1 113 6 view .LVU93
 350 00e4 0028     		cmp	r0, #0
 351 00e6 73D1     		bne	.L31
 352              	.LVL14:
 353              	.L54:
 219:/opt/XMClib/XMC_Peripheral_Library_v2.1.16/ThirdPartyLibraries/USBlib/USB/Core/XMC4000/USBController_XMC4000.c **** 				else {
 354              		.loc 1 219 6 is_stmt 1 view .LVU94
 355              	.LBB32:
 356              	.LBI32:
  54:/opt/XMClib/XMC_Peripheral_Library_v2.1.16/ThirdPartyLibraries/USBlib/USB/Core/XMC4000/USBController_XMC4000.c **** 	/* When we stall ep0 as protocol stall, we go back into idle state and start a new read */
 357              		.loc 1 54 6 view .LVU95
 358              	.LBB33:
  56:/opt/XMClib/XMC_Peripheral_Library_v2.1.16/ThirdPartyLibraries/USBlib/USB/Core/XMC4000/USBController_XMC4000.c **** 	device.EP0_State = IDLE;
 359              		.loc 1 56 2 view .LVU96
  56:/opt/XMClib/XMC_Peripheral_Library_v2.1.16/ThirdPartyLibraries/USBlib/USB/Core/XMC4000/USBController_XMC4000.c **** 	device.EP0_State = IDLE;
 360              		.loc 1 56 15 is_stmt 0 view .LVU97
 361 00e8 2368     		ldr	r3, [r4]
  56:/opt/XMClib/XMC_Peripheral_Library_v2.1.16/ThirdPartyLibraries/USBlib/USB/Core/XMC4000/USBController_XMC4000.c **** 	device.EP0_State = IDLE;
 362              		.loc 1 56 2 view .LVU98
 363 00ea 0121     		movs	r1, #1
 364 00ec 5B6A     		ldr	r3, [r3, #36]
 365 00ee 33E0     		b	.L55
 366              	.LVL15:
 367              	.L19:
  56:/opt/XMClib/XMC_Peripheral_Library_v2.1.16/ThirdPartyLibraries/USBlib/USB/Core/XMC4000/USBController_XMC4000.c **** 	device.EP0_State = IDLE;
 368              		.loc 1 56 2 view .LVU99
 369              	.LBE33:
 370              	.LBE32:
 108:/opt/XMClib/XMC_Peripheral_Library_v2.1.16/ThirdPartyLibraries/USBlib/USB/Core/XMC4000/USBController_XMC4000.c **** 		break;
 371              		.loc 1 108 3 is_stmt 1 view .LVU100
 108:/opt/XMClib/XMC_Peripheral_Library_v2.1.16/ThirdPartyLibraries/USBlib/USB/Core/XMC4000/USBController_XMC4000.c **** 		break;
 372              		.loc 1 108 16 is_stmt 0 view .LVU101
 373 00f0 2368     		ldr	r3, [r4]
 108:/opt/XMClib/XMC_Peripheral_Library_v2.1.16/ThirdPartyLibraries/USBlib/USB/Core/XMC4000/USBController_XMC4000.c **** 		break;
 374              		.loc 1 108 3 view .LVU102
 375 00f2 7049     		ldr	r1, .L63+12
 376 00f4 1B6B     		ldr	r3, [r3, #48]
 377 00f6 0122     		movs	r2, #1
 378 00f8 0020     		movs	r0, #0
 379 00fa 9847     		blx	r3
 380              	.LVL16:
 109:/opt/XMClib/XMC_Peripheral_Library_v2.1.16/ThirdPartyLibraries/USBlib/USB/Core/XMC4000/USBController_XMC4000.c **** 
 381              		.loc 1 109 3 is_stmt 1 view .LVU103
 382 00fc B0E7     		b	.L29
 383              	.L18:
 173:/opt/XMClib/XMC_Peripheral_Library_v2.1.16/ThirdPartyLibraries/USBlib/USB/Core/XMC4000/USBController_XMC4000.c **** 		EVENT_USB_Device_ConfigurationChanged();
 384              		.loc 1 173 3 view .LVU104
 173:/opt/XMClib/XMC_Peripheral_Library_v2.1.16/ThirdPartyLibraries/USBlib/USB/Core/XMC4000/USBController_XMC4000.c **** 		EVENT_USB_Device_ConfigurationChanged();
 385              		.loc 1 173 24 is_stmt 0 view .LVU105
 386 00fe 84F83961 		strb	r6, [r4, #313]
 174:/opt/XMClib/XMC_Peripheral_Library_v2.1.16/ThirdPartyLibraries/USBlib/USB/Core/XMC4000/USBController_XMC4000.c **** 		/* when config 0 is choosen, we are back in address state */
 387              		.loc 1 174 3 is_stmt 1 view .LVU106
 388 0102 FFF7FEFF 		bl	EVENT_USB_Device_ConfigurationChanged
 389              	.LVL17:
 176:/opt/XMClib/XMC_Peripheral_Library_v2.1.16/ThirdPartyLibraries/USBlib/USB/Core/XMC4000/USBController_XMC4000.c **** 			USB_DeviceState = DEVICE_STATE_Addressed;
 390              		.loc 1 176 3 view .LVU107
 176:/opt/XMClib/XMC_Peripheral_Library_v2.1.16/ThirdPartyLibraries/USBlib/USB/Core/XMC4000/USBController_XMC4000.c **** 			USB_DeviceState = DEVICE_STATE_Addressed;
 391              		.loc 1 176 6 is_stmt 0 view .LVU108
 392 0106 002E     		cmp	r6, #0
 393 0108 4DD0     		beq	.L60
 181:/opt/XMClib/XMC_Peripheral_Library_v2.1.16/ThirdPartyLibraries/USBlib/USB/Core/XMC4000/USBController_XMC4000.c **** 			USB_DeviceState = DEVICE_STATE_Configured;
 394              		.loc 1 181 3 is_stmt 1 view .LVU109
 181:/opt/XMClib/XMC_Peripheral_Library_v2.1.16/ThirdPartyLibraries/USBlib/USB/Core/XMC4000/USBController_XMC4000.c **** 			USB_DeviceState = DEVICE_STATE_Configured;
 395              		.loc 1 181 27 is_stmt 0 view .LVU110
 396 010a 94F83E31 		ldrb	r3, [r4, #318]	@ zero_extendqisi2
 181:/opt/XMClib/XMC_Peripheral_Library_v2.1.16/ThirdPartyLibraries/USBlib/USB/Core/XMC4000/USBController_XMC4000.c **** 			USB_DeviceState = DEVICE_STATE_Configured;
 397              		.loc 1 181 6 view .LVU111
 398 010e 13F00105 		ands	r5, r3, #1
 399 0112 00F08D80 		beq	.L40
 182:/opt/XMClib/XMC_Peripheral_Library_v2.1.16/ThirdPartyLibraries/USBlib/USB/Core/XMC4000/USBController_XMC4000.c **** 		else
 400              		.loc 1 182 4 is_stmt 1 view .LVU112
 182:/opt/XMClib/XMC_Peripheral_Library_v2.1.16/ThirdPartyLibraries/USBlib/USB/Core/XMC4000/USBController_XMC4000.c **** 		else
 401              		.loc 1 182 20 is_stmt 0 view .LVU113
 402 0116 664B     		ldr	r3, .L63+8
 403 0118 0422     		movs	r2, #4
 404 011a 1A70     		strb	r2, [r3]
 405 011c A0E7     		b	.L29
 406              	.L23:
 206:/opt/XMClib/XMC_Peripheral_Library_v2.1.16/ThirdPartyLibraries/USBlib/USB/Core/XMC4000/USBController_XMC4000.c **** 			USBD_HandleEP0_Stall();
 407              		.loc 1 206 3 is_stmt 1 view .LVU114
 206:/opt/XMClib/XMC_Peripheral_Library_v2.1.16/ThirdPartyLibraries/USBlib/USB/Core/XMC4000/USBController_XMC4000.c **** 			USBD_HandleEP0_Stall();
 408              		.loc 1 206 6 is_stmt 0 view .LVU115
 409 011e 022E     		cmp	r6, #2
 410 0120 91D0     		beq	.L13
 211:/opt/XMClib/XMC_Peripheral_Library_v2.1.16/ThirdPartyLibraries/USBlib/USB/Core/XMC4000/USBController_XMC4000.c **** 			switch (Value) {
 411              		.loc 1 211 3 is_stmt 1 view .LVU116
 211:/opt/XMClib/XMC_Peripheral_Library_v2.1.16/ThirdPartyLibraries/USBlib/USB/Core/XMC4000/USBController_XMC4000.c **** 			switch (Value) {
 412              		.loc 1 211 23 is_stmt 0 view .LVU117
 413 0122 634B     		ldr	r3, .L63+8
 414 0124 1A78     		ldrb	r2, [r3]	@ zero_extendqisi2
 211:/opt/XMClib/XMC_Peripheral_Library_v2.1.16/ThirdPartyLibraries/USBlib/USB/Core/XMC4000/USBController_XMC4000.c **** 			switch (Value) {
 415              		.loc 1 211 6 view .LVU118
 416 0126 042A     		cmp	r2, #4
 417 0128 00F09080 		beq	.L61
 229:/opt/XMClib/XMC_Peripheral_Library_v2.1.16/ThirdPartyLibraries/USBlib/USB/Core/XMC4000/USBController_XMC4000.c **** 			if (Value == FEATURE_SEL_EndpointHalt &&
 418              		.loc 1 229 3 is_stmt 1 view .LVU119
 229:/opt/XMClib/XMC_Peripheral_Library_v2.1.16/ThirdPartyLibraries/USBlib/USB/Core/XMC4000/USBController_XMC4000.c **** 			if (Value == FEATURE_SEL_EndpointHalt &&
 419              		.loc 1 229 23 is_stmt 0 view .LVU120
 420 012c 1B78     		ldrb	r3, [r3]	@ zero_extendqisi2
 229:/opt/XMClib/XMC_Peripheral_Library_v2.1.16/ThirdPartyLibraries/USBlib/USB/Core/XMC4000/USBController_XMC4000.c **** 			if (Value == FEATURE_SEL_EndpointHalt &&
 421              		.loc 1 229 6 view .LVU121
 422 012e 032B     		cmp	r3, #3
 423 0130 89D1     		bne	.L13
 230:/opt/XMClib/XMC_Peripheral_Library_v2.1.16/ThirdPartyLibraries/USBlib/USB/Core/XMC4000/USBController_XMC4000.c **** 					(USB_ControlRequest.bmRequestType & 0x3) == REQREC_ENDPOINT &&
 424              		.loc 1 230 4 is_stmt 1 view .LVU122
 230:/opt/XMClib/XMC_Peripheral_Library_v2.1.16/ThirdPartyLibraries/USBlib/USB/Core/XMC4000/USBController_XMC4000.c **** 					(USB_ControlRequest.bmRequestType & 0x3) == REQREC_ENDPOINT &&
 425              		.loc 1 230 7 is_stmt 0 view .LVU123
 426 0132 002E     		cmp	r6, #0
 427 0134 87D1     		bne	.L13
 230:/opt/XMClib/XMC_Peripheral_Library_v2.1.16/ThirdPartyLibraries/USBlib/USB/Core/XMC4000/USBController_XMC4000.c **** 					(USB_ControlRequest.bmRequestType & 0x3) == REQREC_ENDPOINT &&
 428              		.loc 1 230 42 discriminator 1 view .LVU124
 429 0136 2B78     		ldrb	r3, [r5]	@ zero_extendqisi2
 430 0138 03F00303 		and	r3, r3, #3
 431 013c 022B     		cmp	r3, #2
 432 013e 82D1     		bne	.L13
 232:/opt/XMClib/XMC_Peripheral_Library_v2.1.16/ThirdPartyLibraries/USBlib/USB/Core/XMC4000/USBController_XMC4000.c **** 				device.Endpoints[0].IsHalted = 1;
 433              		.loc 1 232 25 view .LVU125
 434 0140 AB88     		ldrh	r3, [r5, #4]	@ unaligned
 231:/opt/XMClib/XMC_Peripheral_Library_v2.1.16/ThirdPartyLibraries/USBlib/USB/Core/XMC4000/USBController_XMC4000.c **** 					(USB_ControlRequest.wIndex & 0x00FF) == 0x0) {
 435              		.loc 1 231 66 view .LVU126
 436 0142 13F0FF0F 		tst	r3, #255
 437 0146 7FF47EAF 		bne	.L13
 233:/opt/XMClib/XMC_Peripheral_Library_v2.1.16/ThirdPartyLibraries/USBlib/USB/Core/XMC4000/USBController_XMC4000.c **** 				USBD_HandleEP0_Stall();
 438              		.loc 1 233 5 is_stmt 1 view .LVU127
 233:/opt/XMClib/XMC_Peripheral_Library_v2.1.16/ThirdPartyLibraries/USBlib/USB/Core/XMC4000/USBController_XMC4000.c **** 				USBD_HandleEP0_Stall();
 439              		.loc 1 233 34 is_stmt 0 view .LVU128
 440 014a 237A     		ldrb	r3, [r4, #8]	@ zero_extendqisi2
 441              	.LBB34:
 442              	.LBB35:
  56:/opt/XMClib/XMC_Peripheral_Library_v2.1.16/ThirdPartyLibraries/USBlib/USB/Core/XMC4000/USBController_XMC4000.c **** 	device.EP0_State = IDLE;
 443              		.loc 1 56 15 view .LVU129
 444 014c 2268     		ldr	r2, [r4]
 445              	.LBE35:
 446              	.LBE34:
 233:/opt/XMClib/XMC_Peripheral_Library_v2.1.16/ThirdPartyLibraries/USBlib/USB/Core/XMC4000/USBController_XMC4000.c **** 				USBD_HandleEP0_Stall();
 447              		.loc 1 233 34 view .LVU130
 448 014e 43F00403 		orr	r3, r3, #4
 449 0152 2372     		strb	r3, [r4, #8]
 234:/opt/XMClib/XMC_Peripheral_Library_v2.1.16/ThirdPartyLibraries/USBlib/USB/Core/XMC4000/USBController_XMC4000.c **** 				break;
 450              		.loc 1 234 5 is_stmt 1 view .LVU131
 451              	.LBB37:
 452              	.LBI34:
  54:/opt/XMClib/XMC_Peripheral_Library_v2.1.16/ThirdPartyLibraries/USBlib/USB/Core/XMC4000/USBController_XMC4000.c **** 	/* When we stall ep0 as protocol stall, we go back into idle state and start a new read */
 453              		.loc 1 54 6 view .LVU132
 454              	.LBB36:
  56:/opt/XMClib/XMC_Peripheral_Library_v2.1.16/ThirdPartyLibraries/USBlib/USB/Core/XMC4000/USBController_XMC4000.c **** 	device.EP0_State = IDLE;
 455              		.loc 1 56 2 view .LVU133
 456 0154 536A     		ldr	r3, [r2, #36]
 457 0156 0121     		movs	r1, #1
 458              	.LVL18:
 459              	.L55:
  56:/opt/XMClib/XMC_Peripheral_Library_v2.1.16/ThirdPartyLibraries/USBlib/USB/Core/XMC4000/USBController_XMC4000.c **** 	device.EP0_State = IDLE;
 460              		.loc 1 56 2 is_stmt 0 view .LVU134
 461 0158 8020     		movs	r0, #128
 462 015a 9847     		blx	r3
 463              	.LVL19:
  57:/opt/XMClib/XMC_Peripheral_Library_v2.1.16/ThirdPartyLibraries/USBlib/USB/Core/XMC4000/USBController_XMC4000.c **** 	device.Driver->EndpointReadStart(0,24);
 464              		.loc 1 57 2 is_stmt 1 view .LVU135
  58:/opt/XMClib/XMC_Peripheral_Library_v2.1.16/ThirdPartyLibraries/USBlib/USB/Core/XMC4000/USBController_XMC4000.c **** }
 465              		.loc 1 58 15 is_stmt 0 view .LVU136
 466 015c 2368     		ldr	r3, [r4]
  57:/opt/XMClib/XMC_Peripheral_Library_v2.1.16/ThirdPartyLibraries/USBlib/USB/Core/XMC4000/USBController_XMC4000.c **** 	device.Driver->EndpointReadStart(0,24);
 467              		.loc 1 57 19 view .LVU137
 468 015e 0122     		movs	r2, #1
 469 0160 84F83B21 		strb	r2, [r4, #315]
  58:/opt/XMClib/XMC_Peripheral_Library_v2.1.16/ThirdPartyLibraries/USBlib/USB/Core/XMC4000/USBController_XMC4000.c **** }
 470              		.loc 1 58 2 is_stmt 1 view .LVU138
 471 0164 9B6A     		ldr	r3, [r3, #40]
 472 0166 3046     		mov	r0, r6
 473 0168 1821     		movs	r1, #24
 474 016a 9847     		blx	r3
 475              	.LVL20:
  59:/opt/XMClib/XMC_Peripheral_Library_v2.1.16/ThirdPartyLibraries/USBlib/USB/Core/XMC4000/USBController_XMC4000.c **** 
 476              		.loc 1 59 1 is_stmt 0 view .LVU139
 477 016c 78E7     		b	.L29
 478              	.LVL21:
 479              	.L22:
  59:/opt/XMClib/XMC_Peripheral_Library_v2.1.16/ThirdPartyLibraries/USBlib/USB/Core/XMC4000/USBController_XMC4000.c **** 
 480              		.loc 1 59 1 view .LVU140
 481              	.LBE36:
 482              	.LBE37:
 164:/opt/XMClib/XMC_Peripheral_Library_v2.1.16/ThirdPartyLibraries/USBlib/USB/Core/XMC4000/USBController_XMC4000.c **** 			USB_DeviceState = DEVICE_STATE_Default;
 483              		.loc 1 164 3 is_stmt 1 view .LVU141
 165:/opt/XMClib/XMC_Peripheral_Library_v2.1.16/ThirdPartyLibraries/USBlib/USB/Core/XMC4000/USBController_XMC4000.c **** 		else
 484              		.loc 1 165 20 is_stmt 0 view .LVU142
 485 016e 504B     		ldr	r3, .L63+8
 164:/opt/XMClib/XMC_Peripheral_Library_v2.1.16/ThirdPartyLibraries/USBlib/USB/Core/XMC4000/USBController_XMC4000.c **** 			USB_DeviceState = DEVICE_STATE_Default;
 486              		.loc 1 164 6 view .LVU143
 487 0170 B6B9     		cbnz	r6, .L37
 165:/opt/XMClib/XMC_Peripheral_Library_v2.1.16/ThirdPartyLibraries/USBlib/USB/Core/XMC4000/USBController_XMC4000.c **** 		else
 488              		.loc 1 165 4 is_stmt 1 view .LVU144
 165:/opt/XMClib/XMC_Peripheral_Library_v2.1.16/ThirdPartyLibraries/USBlib/USB/Core/XMC4000/USBController_XMC4000.c **** 		else
 489              		.loc 1 165 20 is_stmt 0 view .LVU145
 490 0172 0222     		movs	r2, #2
 491 0174 1A70     		strb	r2, [r3]
 492              	.L38:
 168:/opt/XMClib/XMC_Peripheral_Library_v2.1.16/ThirdPartyLibraries/USBlib/USB/Core/XMC4000/USBController_XMC4000.c **** 		break;
 493              		.loc 1 168 3 is_stmt 1 view .LVU146
 168:/opt/XMClib/XMC_Peripheral_Library_v2.1.16/ThirdPartyLibraries/USBlib/USB/Core/XMC4000/USBController_XMC4000.c **** 		break;
 494              		.loc 1 168 16 is_stmt 0 view .LVU147
 495 0176 2368     		ldr	r3, [r4]
 168:/opt/XMClib/XMC_Peripheral_Library_v2.1.16/ThirdPartyLibraries/USBlib/USB/Core/XMC4000/USBController_XMC4000.c **** 		break;
 496              		.loc 1 168 3 view .LVU148
 497 0178 3046     		mov	r0, r6
 498 017a 9B69     		ldr	r3, [r3, #24]
 499 017c 0021     		movs	r1, #0
 500 017e 9847     		blx	r3
 501              	.LVL22:
 169:/opt/XMClib/XMC_Peripheral_Library_v2.1.16/ThirdPartyLibraries/USBlib/USB/Core/XMC4000/USBController_XMC4000.c **** 
 502              		.loc 1 169 3 is_stmt 1 view .LVU149
 503 0180 6EE7     		b	.L29
 504              	.L24:
  89:/opt/XMClib/XMC_Peripheral_Library_v2.1.16/ThirdPartyLibraries/USBlib/USB/Core/XMC4000/USBController_XMC4000.c **** 			Index = USB_ControlRequest.wIndex & ENDPOINT_EPNUM_MASK;
 505              		.loc 1 89 3 view .LVU150
 506 0182 2B78     		ldrb	r3, [r5]	@ zero_extendqisi2
 507 0184 03F00303 		and	r3, r3, #3
  89:/opt/XMClib/XMC_Peripheral_Library_v2.1.16/ThirdPartyLibraries/USBlib/USB/Core/XMC4000/USBController_XMC4000.c **** 			Index = USB_ControlRequest.wIndex & ENDPOINT_EPNUM_MASK;
 508              		.loc 1 89 6 is_stmt 0 view .LVU151
 509 0188 022B     		cmp	r3, #2
 510 018a 37D0     		beq	.L62
 100:/opt/XMClib/XMC_Peripheral_Library_v2.1.16/ThirdPartyLibraries/USBlib/USB/Core/XMC4000/USBController_XMC4000.c **** 			 device.RemoteWakeUp = 0;
 511              		.loc 1 100 3 is_stmt 1 view .LVU152
 100:/opt/XMClib/XMC_Peripheral_Library_v2.1.16/ThirdPartyLibraries/USBlib/USB/Core/XMC4000/USBController_XMC4000.c **** 			 device.RemoteWakeUp = 0;
 512              		.loc 1 100 6 is_stmt 0 view .LVU153
 513 018c 002B     		cmp	r3, #0
 514 018e 7FF45AAF 		bne	.L13
 101:/opt/XMClib/XMC_Peripheral_Library_v2.1.16/ThirdPartyLibraries/USBlib/USB/Core/XMC4000/USBController_XMC4000.c **** 			 break;
 515              		.loc 1 101 5 is_stmt 1 view .LVU154
 101:/opt/XMClib/XMC_Peripheral_Library_v2.1.16/ThirdPartyLibraries/USBlib/USB/Core/XMC4000/USBController_XMC4000.c **** 			 break;
 516              		.loc 1 101 25 is_stmt 0 view .LVU155
 517 0192 94F83E21 		ldrb	r2, [r4, #318]	@ zero_extendqisi2
 518 0196 63F38202 		bfi	r2, r3, #2, #1
 519 019a 84F83E21 		strb	r2, [r4, #318]
 102:/opt/XMClib/XMC_Peripheral_Library_v2.1.16/ThirdPartyLibraries/USBlib/USB/Core/XMC4000/USBController_XMC4000.c **** 		}
 520              		.loc 1 102 5 is_stmt 1 view .LVU156
 521 019e 5FE7     		b	.L29
 522              	.L37:
 167:/opt/XMClib/XMC_Peripheral_Library_v2.1.16/ThirdPartyLibraries/USBlib/USB/Core/XMC4000/USBController_XMC4000.c **** 		device.Driver->DeviceSetAddress(Value,XMC_USBD_SET_ADDRESS_STAGE_SETUP);
 523              		.loc 1 167 4 view .LVU157
 167:/opt/XMClib/XMC_Peripheral_Library_v2.1.16/ThirdPartyLibraries/USBlib/USB/Core/XMC4000/USBController_XMC4000.c **** 		device.Driver->DeviceSetAddress(Value,XMC_USBD_SET_ADDRESS_STAGE_SETUP);
 524              		.loc 1 167 20 is_stmt 0 view .LVU158
 525 01a0 0322     		movs	r2, #3
 526 01a2 1A70     		strb	r2, [r3]
 527 01a4 E7E7     		b	.L38
 528              	.L60:
 177:/opt/XMClib/XMC_Peripheral_Library_v2.1.16/ThirdPartyLibraries/USBlib/USB/Core/XMC4000/USBController_XMC4000.c **** 			break;
 529              		.loc 1 177 4 is_stmt 1 view .LVU159
 177:/opt/XMClib/XMC_Peripheral_Library_v2.1.16/ThirdPartyLibraries/USBlib/USB/Core/XMC4000/USBController_XMC4000.c **** 			break;
 530              		.loc 1 177 20 is_stmt 0 view .LVU160
 531 01a6 424B     		ldr	r3, .L63+8
 532 01a8 0322     		movs	r2, #3
 533 01aa 1A70     		strb	r2, [r3]
 178:/opt/XMClib/XMC_Peripheral_Library_v2.1.16/ThirdPartyLibraries/USBlib/USB/Core/XMC4000/USBController_XMC4000.c **** 		}
 534              		.loc 1 178 4 is_stmt 1 view .LVU161
 535 01ac 58E7     		b	.L29
 536              	.L58:
 137:/opt/XMClib/XMC_Peripheral_Library_v2.1.16/ThirdPartyLibraries/USBlib/USB/Core/XMC4000/USBController_XMC4000.c **** 			device.Driver->EndpointWrite(0,(uint8_t*)&status,2);
 537              		.loc 1 137 4 view .LVU162
 137:/opt/XMClib/XMC_Peripheral_Library_v2.1.16/ThirdPartyLibraries/USBlib/USB/Core/XMC4000/USBController_XMC4000.c **** 			device.Driver->EndpointWrite(0,(uint8_t*)&status,2);
 538              		.loc 1 137 19 is_stmt 0 view .LVU163
 539 01ae 94F83E31 		ldrb	r3, [r4, #318]	@ zero_extendqisi2
 138:/opt/XMClib/XMC_Peripheral_Library_v2.1.16/ThirdPartyLibraries/USBlib/USB/Core/XMC4000/USBController_XMC4000.c **** 			break;
 540              		.loc 1 138 17 view .LVU164
 541 01b2 2268     		ldr	r2, [r4]
 137:/opt/XMClib/XMC_Peripheral_Library_v2.1.16/ThirdPartyLibraries/USBlib/USB/Core/XMC4000/USBController_XMC4000.c **** 			device.Driver->EndpointWrite(0,(uint8_t*)&status,2);
 542              		.loc 1 137 19 view .LVU165
 543 01b4 C3F38001 		ubfx	r1, r3, #2, #1
 137:/opt/XMClib/XMC_Peripheral_Library_v2.1.16/ThirdPartyLibraries/USBlib/USB/Core/XMC4000/USBController_XMC4000.c **** 			device.Driver->EndpointWrite(0,(uint8_t*)&status,2);
 544              		.loc 1 137 46 view .LVU166
 545 01b8 C3F3C003 		ubfx	r3, r3, #3, #1
 137:/opt/XMClib/XMC_Peripheral_Library_v2.1.16/ThirdPartyLibraries/USBlib/USB/Core/XMC4000/USBController_XMC4000.c **** 			device.Driver->EndpointWrite(0,(uint8_t*)&status,2);
 546              		.loc 1 137 38 view .LVU167
 547 01bc 43EA4103 		orr	r3, r3, r1, lsl #1
 137:/opt/XMClib/XMC_Peripheral_Library_v2.1.16/ThirdPartyLibraries/USBlib/USB/Core/XMC4000/USBController_XMC4000.c **** 			device.Driver->EndpointWrite(0,(uint8_t*)&status,2);
 548              		.loc 1 137 11 view .LVU168
 549 01c0 ADF80230 		strh	r3, [sp, #2]	@ movhi
 138:/opt/XMClib/XMC_Peripheral_Library_v2.1.16/ThirdPartyLibraries/USBlib/USB/Core/XMC4000/USBController_XMC4000.c **** 			break;
 550              		.loc 1 138 4 is_stmt 1 view .LVU169
 551 01c4 136B     		ldr	r3, [r2, #48]
 552 01c6 0222     		movs	r2, #2
 553 01c8 0DEB0201 		add	r1, sp, r2
 554 01cc 9847     		blx	r3
 555              	.LVL23:
 139:/opt/XMClib/XMC_Peripheral_Library_v2.1.16/ThirdPartyLibraries/USBlib/USB/Core/XMC4000/USBController_XMC4000.c **** 		}
 556              		.loc 1 139 4 view .LVU170
 557 01ce 47E7     		b	.L29
 558              	.LVL24:
 559              	.L31:
 116:/opt/XMClib/XMC_Peripheral_Library_v2.1.16/ThirdPartyLibraries/USBlib/USB/Core/XMC4000/USBController_XMC4000.c **** 					length : USB_ControlRequest.wLength;
 560              		.loc 1 116 4 view .LVU171
 116:/opt/XMClib/XMC_Peripheral_Library_v2.1.16/ThirdPartyLibraries/USBlib/USB/Core/XMC4000/USBController_XMC4000.c **** 					length : USB_ControlRequest.wLength;
 561              		.loc 1 116 40 is_stmt 0 view .LVU172
 562 01d0 EA88     		ldrh	r2, [r5, #6]	@ unaligned
 118:/opt/XMClib/XMC_Peripheral_Library_v2.1.16/ThirdPartyLibraries/USBlib/USB/Core/XMC4000/USBController_XMC4000.c **** 			device.Endpoints[0].InDataLeft = length - ret;
 563              		.loc 1 118 23 view .LVU173
 564 01d2 2368     		ldr	r3, [r4]
 118:/opt/XMClib/XMC_Peripheral_Library_v2.1.16/ThirdPartyLibraries/USBlib/USB/Core/XMC4000/USBController_XMC4000.c **** 			device.Endpoints[0].InDataLeft = length - ret;
 565              		.loc 1 118 10 view .LVU174
 566 01d4 0199     		ldr	r1, [sp, #4]
 567 01d6 1B6B     		ldr	r3, [r3, #48]
 116:/opt/XMClib/XMC_Peripheral_Library_v2.1.16/ThirdPartyLibraries/USBlib/USB/Core/XMC4000/USBController_XMC4000.c **** 					length : USB_ControlRequest.wLength;
 568              		.loc 1 116 11 view .LVU175
 569 01d8 9042     		cmp	r0, r2
 570 01da 28BF     		it	cs
 571 01dc 1646     		movcs	r6, r2
 572              	.LVL25:
 118:/opt/XMClib/XMC_Peripheral_Library_v2.1.16/ThirdPartyLibraries/USBlib/USB/Core/XMC4000/USBController_XMC4000.c **** 			device.Endpoints[0].InDataLeft = length - ret;
 573              		.loc 1 118 4 is_stmt 1 view .LVU176
 118:/opt/XMClib/XMC_Peripheral_Library_v2.1.16/ThirdPartyLibraries/USBlib/USB/Core/XMC4000/USBController_XMC4000.c **** 			device.Endpoints[0].InDataLeft = length - ret;
 574              		.loc 1 118 10 is_stmt 0 view .LVU177
 575 01de 3246     		mov	r2, r6
 576 01e0 0020     		movs	r0, #0
 577 01e2 9847     		blx	r3
 578              	.LVL26:
 120:/opt/XMClib/XMC_Peripheral_Library_v2.1.16/ThirdPartyLibraries/USBlib/USB/Core/XMC4000/USBController_XMC4000.c **** 		}
 579              		.loc 1 120 68 view .LVU178
 580 01e4 019B     		ldr	r3, [sp, #4]
 581              	.LVL27:
 119:/opt/XMClib/XMC_Peripheral_Library_v2.1.16/ThirdPartyLibraries/USBlib/USB/Core/XMC4000/USBController_XMC4000.c **** 			device.Endpoints[0].InDataBuffer = (uint8_t *)((uint32_t)buffer + ret);
 582              		.loc 1 119 4 is_stmt 1 view .LVU179
 119:/opt/XMClib/XMC_Peripheral_Library_v2.1.16/ThirdPartyLibraries/USBlib/USB/Core/XMC4000/USBController_XMC4000.c **** 			device.Endpoints[0].InDataBuffer = (uint8_t *)((uint32_t)buffer + ret);
 583              		.loc 1 119 44 is_stmt 0 view .LVU180
 584 01e6 361A     		subs	r6, r6, r0
 585              	.LVL28:
 120:/opt/XMClib/XMC_Peripheral_Library_v2.1.16/ThirdPartyLibraries/USBlib/USB/Core/XMC4000/USBController_XMC4000.c **** 		}
 586              		.loc 1 120 68 view .LVU181
 587 01e8 1844     		add	r0, r0, r3
 588              	.LVL29:
 120:/opt/XMClib/XMC_Peripheral_Library_v2.1.16/ThirdPartyLibraries/USBlib/USB/Core/XMC4000/USBController_XMC4000.c **** 		}
 589              		.loc 1 120 37 view .LVU182
 590 01ea C4E90A60 		strd	r6, r0, [r4, #40]
 591 01ee 37E7     		b	.L29
 592              	.LVL30:
 593              	.L57:
 195:/opt/XMClib/XMC_Peripheral_Library_v2.1.16/ThirdPartyLibraries/USBlib/USB/Core/XMC4000/USBController_XMC4000.c **** 			break;
 594              		.loc 1 195 4 is_stmt 1 view .LVU183
 195:/opt/XMClib/XMC_Peripheral_Library_v2.1.16/ThirdPartyLibraries/USBlib/USB/Core/XMC4000/USBController_XMC4000.c **** 			break;
 595              		.loc 1 195 47 is_stmt 0 view .LVU184
 596 01f0 AB88     		ldrh	r3, [r5, #4]	@ unaligned
 195:/opt/XMClib/XMC_Peripheral_Library_v2.1.16/ThirdPartyLibraries/USBlib/USB/Core/XMC4000/USBController_XMC4000.c **** 			break;
 597              		.loc 1 195 76 view .LVU185
 598 01f2 6A88     		ldrh	r2, [r5, #2]	@ unaligned
 195:/opt/XMClib/XMC_Peripheral_Library_v2.1.16/ThirdPartyLibraries/USBlib/USB/Core/XMC4000/USBController_XMC4000.c **** 			break;
 599              		.loc 1 195 56 view .LVU186
 600 01f4 2344     		add	r3, r3, r4
 601 01f6 83F83821 		strb	r2, [r3, #312]
 196:/opt/XMClib/XMC_Peripheral_Library_v2.1.16/ThirdPartyLibraries/USBlib/USB/Core/XMC4000/USBController_XMC4000.c **** 		}
 602              		.loc 1 196 4 is_stmt 1 view .LVU187
 603 01fa 31E7     		b	.L29
 604              	.L62:
  90:/opt/XMClib/XMC_Peripheral_Library_v2.1.16/ThirdPartyLibraries/USBlib/USB/Core/XMC4000/USBController_XMC4000.c **** 			if ((USB_DeviceState == DEVICE_STATE_Configured || USB_ControlRequest.wIndex==0)  &&
 605              		.loc 1 90 4 view .LVU188
  91:/opt/XMClib/XMC_Peripheral_Library_v2.1.16/ThirdPartyLibraries/USBlib/USB/Core/XMC4000/USBController_XMC4000.c **** 					device.Endpoints[Index].IsConfigured==1) {
 606              		.loc 1 91 25 is_stmt 0 view .LVU189
 607 01fc 2C4B     		ldr	r3, .L63+8
  90:/opt/XMClib/XMC_Peripheral_Library_v2.1.16/ThirdPartyLibraries/USBlib/USB/Core/XMC4000/USBController_XMC4000.c **** 			if ((USB_DeviceState == DEVICE_STATE_Configured || USB_ControlRequest.wIndex==0)  &&
 608              		.loc 1 90 30 view .LVU190
 609 01fe A888     		ldrh	r0, [r5, #4]	@ unaligned
 610              	.LVL31:
  91:/opt/XMClib/XMC_Peripheral_Library_v2.1.16/ThirdPartyLibraries/USBlib/USB/Core/XMC4000/USBController_XMC4000.c **** 					device.Endpoints[Index].IsConfigured==1) {
 611              		.loc 1 91 4 is_stmt 1 view .LVU191
  91:/opt/XMClib/XMC_Peripheral_Library_v2.1.16/ThirdPartyLibraries/USBlib/USB/Core/XMC4000/USBController_XMC4000.c **** 					device.Endpoints[Index].IsConfigured==1) {
 612              		.loc 1 91 25 is_stmt 0 view .LVU192
 613 0200 1B78     		ldrb	r3, [r3]	@ zero_extendqisi2
  91:/opt/XMClib/XMC_Peripheral_Library_v2.1.16/ThirdPartyLibraries/USBlib/USB/Core/XMC4000/USBController_XMC4000.c **** 					device.Endpoints[Index].IsConfigured==1) {
 614              		.loc 1 91 7 view .LVU193
 615 0202 042B     		cmp	r3, #4
 616 0204 02D0     		beq	.L27
  91:/opt/XMClib/XMC_Peripheral_Library_v2.1.16/ThirdPartyLibraries/USBlib/USB/Core/XMC4000/USBController_XMC4000.c **** 					device.Endpoints[Index].IsConfigured==1) {
 617              		.loc 1 91 52 discriminator 2 view .LVU194
 618 0206 0028     		cmp	r0, #0
 619 0208 7FF41DAF 		bne	.L13
 620              	.L27:
  92:/opt/XMClib/XMC_Peripheral_Library_v2.1.16/ThirdPartyLibraries/USBlib/USB/Core/XMC4000/USBController_XMC4000.c **** 				device.Endpoints[Index].IsHalted = 0;
 621              		.loc 1 92 29 discriminator 3 view .LVU195
 622 020c 2C22     		movs	r2, #44
 623 020e 00F00F03 		and	r3, r0, #15
 624 0212 02FB0343 		mla	r3, r2, r3, r4
 625 0216 1A7A     		ldrb	r2, [r3, #8]	@ zero_extendqisi2
  91:/opt/XMClib/XMC_Peripheral_Library_v2.1.16/ThirdPartyLibraries/USBlib/USB/Core/XMC4000/USBController_XMC4000.c **** 					device.Endpoints[Index].IsConfigured==1) {
 626              		.loc 1 91 86 discriminator 3 view .LVU196
 627 0218 D507     		lsls	r5, r2, #31
 628              	.LVL32:
  91:/opt/XMClib/XMC_Peripheral_Library_v2.1.16/ThirdPartyLibraries/USBlib/USB/Core/XMC4000/USBController_XMC4000.c **** 					device.Endpoints[Index].IsConfigured==1) {
 629              		.loc 1 91 86 discriminator 3 view .LVU197
 630 021a 7FF514AF 		bpl	.L13
  93:/opt/XMClib/XMC_Peripheral_Library_v2.1.16/ThirdPartyLibraries/USBlib/USB/Core/XMC4000/USBController_XMC4000.c **** 				device.Driver->EndpointStall(USB_ControlRequest.wIndex,0);
 631              		.loc 1 93 5 is_stmt 1 view .LVU198
  94:/opt/XMClib/XMC_Peripheral_Library_v2.1.16/ThirdPartyLibraries/USBlib/USB/Core/XMC4000/USBController_XMC4000.c **** 			} else {
 632              		.loc 1 94 18 is_stmt 0 view .LVU199
 633 021e 2168     		ldr	r1, [r4]
  93:/opt/XMClib/XMC_Peripheral_Library_v2.1.16/ThirdPartyLibraries/USBlib/USB/Core/XMC4000/USBController_XMC4000.c **** 				device.Driver->EndpointStall(USB_ControlRequest.wIndex,0);
 634              		.loc 1 93 38 view .LVU200
 635 0220 6FF38202 		bfc	r2, #2, #1
 636 0224 1A72     		strb	r2, [r3, #8]
 637              	.LVL33:
  94:/opt/XMClib/XMC_Peripheral_Library_v2.1.16/ThirdPartyLibraries/USBlib/USB/Core/XMC4000/USBController_XMC4000.c **** 			} else {
 638              		.loc 1 94 5 is_stmt 1 view .LVU201
 639 0226 C0B2     		uxtb	r0, r0
 640 0228 4B6A     		ldr	r3, [r1, #36]
 641 022a 0021     		movs	r1, #0
 642 022c 9847     		blx	r3
 643              	.LVL34:
 644 022e 17E7     		b	.L29
 645              	.L40:
 184:/opt/XMClib/XMC_Peripheral_Library_v2.1.16/ThirdPartyLibraries/USBlib/USB/Core/XMC4000/USBController_XMC4000.c **** 		break;
 646              		.loc 1 184 4 view .LVU202
 647              	.LBB38:
 648              	.LBI38:
  54:/opt/XMClib/XMC_Peripheral_Library_v2.1.16/ThirdPartyLibraries/USBlib/USB/Core/XMC4000/USBController_XMC4000.c **** 	/* When we stall ep0 as protocol stall, we go back into idle state and start a new read */
 649              		.loc 1 54 6 view .LVU203
 650              	.LBB39:
  56:/opt/XMClib/XMC_Peripheral_Library_v2.1.16/ThirdPartyLibraries/USBlib/USB/Core/XMC4000/USBController_XMC4000.c **** 	device.EP0_State = IDLE;
 651              		.loc 1 56 2 view .LVU204
  56:/opt/XMClib/XMC_Peripheral_Library_v2.1.16/ThirdPartyLibraries/USBlib/USB/Core/XMC4000/USBController_XMC4000.c **** 	device.EP0_State = IDLE;
 652              		.loc 1 56 15 is_stmt 0 view .LVU205
 653 0230 2368     		ldr	r3, [r4]
  56:/opt/XMClib/XMC_Peripheral_Library_v2.1.16/ThirdPartyLibraries/USBlib/USB/Core/XMC4000/USBController_XMC4000.c **** 	device.EP0_State = IDLE;
 654              		.loc 1 56 2 view .LVU206
 655 0232 0121     		movs	r1, #1
 656 0234 5B6A     		ldr	r3, [r3, #36]
 657 0236 8020     		movs	r0, #128
 658 0238 9847     		blx	r3
 659              	.LVL35:
  57:/opt/XMClib/XMC_Peripheral_Library_v2.1.16/ThirdPartyLibraries/USBlib/USB/Core/XMC4000/USBController_XMC4000.c **** 	device.Driver->EndpointReadStart(0,24);
 660              		.loc 1 57 2 is_stmt 1 view .LVU207
  58:/opt/XMClib/XMC_Peripheral_Library_v2.1.16/ThirdPartyLibraries/USBlib/USB/Core/XMC4000/USBController_XMC4000.c **** }
 661              		.loc 1 58 15 is_stmt 0 view .LVU208
 662 023a 2368     		ldr	r3, [r4]
  57:/opt/XMClib/XMC_Peripheral_Library_v2.1.16/ThirdPartyLibraries/USBlib/USB/Core/XMC4000/USBController_XMC4000.c **** 	device.Driver->EndpointReadStart(0,24);
 663              		.loc 1 57 19 view .LVU209
 664 023c 0122     		movs	r2, #1
 665 023e 84F83B21 		strb	r2, [r4, #315]
  58:/opt/XMClib/XMC_Peripheral_Library_v2.1.16/ThirdPartyLibraries/USBlib/USB/Core/XMC4000/USBController_XMC4000.c **** }
 666              		.loc 1 58 2 is_stmt 1 view .LVU210
 667 0242 9B6A     		ldr	r3, [r3, #40]
 668 0244 2846     		mov	r0, r5
 669 0246 1821     		movs	r1, #24
 670 0248 9847     		blx	r3
 671              	.LVL36:
  59:/opt/XMClib/XMC_Peripheral_Library_v2.1.16/ThirdPartyLibraries/USBlib/USB/Core/XMC4000/USBController_XMC4000.c **** 
 672              		.loc 1 59 1 is_stmt 0 view .LVU211
 673 024a 09E7     		b	.L29
 674              	.L61:
  59:/opt/XMClib/XMC_Peripheral_Library_v2.1.16/ThirdPartyLibraries/USBlib/USB/Core/XMC4000/USBController_XMC4000.c **** 
 675              		.loc 1 59 1 view .LVU212
 676              	.LBE39:
 677              	.LBE38:
 212:/opt/XMClib/XMC_Peripheral_Library_v2.1.16/ThirdPartyLibraries/USBlib/USB/Core/XMC4000/USBController_XMC4000.c **** 			case FEATURE_SEL_DeviceRemoteWakeup:
 678              		.loc 1 212 4 is_stmt 1 view .LVU213
 679 024c C6B1     		cbz	r6, .L44
 680 024e 012E     		cmp	r6, #1
 681 0250 7FF406AF 		bne	.L29
 214:/opt/XMClib/XMC_Peripheral_Library_v2.1.16/ThirdPartyLibraries/USBlib/USB/Core/XMC4000/USBController_XMC4000.c **** 				break;
 682              		.loc 1 214 5 view .LVU214
 214:/opt/XMClib/XMC_Peripheral_Library_v2.1.16/ThirdPartyLibraries/USBlib/USB/Core/XMC4000/USBController_XMC4000.c **** 				break;
 683              		.loc 1 214 25 is_stmt 0 view .LVU215
 684 0254 94F83E31 		ldrb	r3, [r4, #318]	@ zero_extendqisi2
 685 0258 43F00403 		orr	r3, r3, #4
 686 025c 84F83E31 		strb	r3, [r4, #318]
 215:/opt/XMClib/XMC_Peripheral_Library_v2.1.16/ThirdPartyLibraries/USBlib/USB/Core/XMC4000/USBController_XMC4000.c **** 			case FEATURE_SEL_EndpointHalt:
 687              		.loc 1 215 5 is_stmt 1 view .LVU216
 688 0260 FEE6     		b	.L29
 689              	.L59:
 141:/opt/XMClib/XMC_Peripheral_Library_v2.1.16/ThirdPartyLibraries/USBlib/USB/Core/XMC4000/USBController_XMC4000.c **** 			status = 0;
 690              		.loc 1 141 87 is_stmt 0 discriminator 1 view .LVU217
 691 0262 134B     		ldr	r3, .L63+8
 692 0264 1B78     		ldrb	r3, [r3]	@ zero_extendqisi2
 141:/opt/XMClib/XMC_Peripheral_Library_v2.1.16/ThirdPartyLibraries/USBlib/USB/Core/XMC4000/USBController_XMC4000.c **** 			status = 0;
 693              		.loc 1 141 68 discriminator 1 view .LVU218
 694 0266 042B     		cmp	r3, #4
 695 0268 7FF4EDAE 		bne	.L13
 142:/opt/XMClib/XMC_Peripheral_Library_v2.1.16/ThirdPartyLibraries/USBlib/USB/Core/XMC4000/USBController_XMC4000.c **** 			device.Driver->EndpointWrite(0,(uint8_t*)&status,2);
 696              		.loc 1 142 4 is_stmt 1 view .LVU219
 143:/opt/XMClib/XMC_Peripheral_Library_v2.1.16/ThirdPartyLibraries/USBlib/USB/Core/XMC4000/USBController_XMC4000.c **** 			break;
 697              		.loc 1 143 17 is_stmt 0 view .LVU220
 698 026c 2368     		ldr	r3, [r4]
 143:/opt/XMClib/XMC_Peripheral_Library_v2.1.16/ThirdPartyLibraries/USBlib/USB/Core/XMC4000/USBController_XMC4000.c **** 			break;
 699              		.loc 1 143 4 view .LVU221
 700 026e 0222     		movs	r2, #2
 142:/opt/XMClib/XMC_Peripheral_Library_v2.1.16/ThirdPartyLibraries/USBlib/USB/Core/XMC4000/USBController_XMC4000.c **** 			device.Driver->EndpointWrite(0,(uint8_t*)&status,2);
 701              		.loc 1 142 11 view .LVU222
 702 0270 0020     		movs	r0, #0
 143:/opt/XMClib/XMC_Peripheral_Library_v2.1.16/ThirdPartyLibraries/USBlib/USB/Core/XMC4000/USBController_XMC4000.c **** 			break;
 703              		.loc 1 143 4 view .LVU223
 704 0272 1B6B     		ldr	r3, [r3, #48]
 142:/opt/XMClib/XMC_Peripheral_Library_v2.1.16/ThirdPartyLibraries/USBlib/USB/Core/XMC4000/USBController_XMC4000.c **** 			device.Driver->EndpointWrite(0,(uint8_t*)&status,2);
 705              		.loc 1 142 11 view .LVU224
 706 0274 ADF80200 		strh	r0, [sp, #2]	@ movhi
 143:/opt/XMClib/XMC_Peripheral_Library_v2.1.16/ThirdPartyLibraries/USBlib/USB/Core/XMC4000/USBController_XMC4000.c **** 			break;
 707              		.loc 1 143 4 is_stmt 1 view .LVU225
 708 0278 0DEB0201 		add	r1, sp, r2
 709 027c 9847     		blx	r3
 710              	.LVL37:
 144:/opt/XMClib/XMC_Peripheral_Library_v2.1.16/ThirdPartyLibraries/USBlib/USB/Core/XMC4000/USBController_XMC4000.c **** 		}
 711              		.loc 1 144 4 view .LVU226
 712 027e EFE6     		b	.L29
 713              	.L44:
 217:/opt/XMClib/XMC_Peripheral_Library_v2.1.16/ThirdPartyLibraries/USBlib/USB/Core/XMC4000/USBController_XMC4000.c **** 				if (device.Endpoints[Index].IsConfigured == 0)
 714              		.loc 1 217 5 view .LVU227
 217:/opt/XMClib/XMC_Peripheral_Library_v2.1.16/ThirdPartyLibraries/USBlib/USB/Core/XMC4000/USBController_XMC4000.c **** 				if (device.Endpoints[Index].IsConfigured == 0)
 715              		.loc 1 217 31 is_stmt 0 view .LVU228
 716 0280 A888     		ldrh	r0, [r5, #4]	@ unaligned
 717              	.LVL38:
 218:/opt/XMClib/XMC_Peripheral_Library_v2.1.16/ThirdPartyLibraries/USBlib/USB/Core/XMC4000/USBController_XMC4000.c **** 					USBD_HandleEP0_Stall();
 718              		.loc 1 218 5 is_stmt 1 view .LVU229
 218:/opt/XMClib/XMC_Peripheral_Library_v2.1.16/ThirdPartyLibraries/USBlib/USB/Core/XMC4000/USBController_XMC4000.c **** 					USBD_HandleEP0_Stall();
 719              		.loc 1 218 32 is_stmt 0 view .LVU230
 720 0282 2C22     		movs	r2, #44
 721 0284 00F00F03 		and	r3, r0, #15
 722 0288 02FB0343 		mla	r3, r2, r3, r4
 723 028c 1A7A     		ldrb	r2, [r3, #8]	@ zero_extendqisi2
 218:/opt/XMClib/XMC_Peripheral_Library_v2.1.16/ThirdPartyLibraries/USBlib/USB/Core/XMC4000/USBController_XMC4000.c **** 					USBD_HandleEP0_Stall();
 724              		.loc 1 218 8 view .LVU231
 725 028e D107     		lsls	r1, r2, #31
 726 0290 7FF52AAF 		bpl	.L54
 221:/opt/XMClib/XMC_Peripheral_Library_v2.1.16/ThirdPartyLibraries/USBlib/USB/Core/XMC4000/USBController_XMC4000.c **** 					device.Driver->EndpointStall(USB_ControlRequest.wIndex,1);
 727              		.loc 1 221 6 is_stmt 1 view .LVU232
 222:/opt/XMClib/XMC_Peripheral_Library_v2.1.16/ThirdPartyLibraries/USBlib/USB/Core/XMC4000/USBController_XMC4000.c **** 				}
 728              		.loc 1 222 19 is_stmt 0 view .LVU233
 729 0294 2168     		ldr	r1, [r4]
 221:/opt/XMClib/XMC_Peripheral_Library_v2.1.16/ThirdPartyLibraries/USBlib/USB/Core/XMC4000/USBController_XMC4000.c **** 					device.Driver->EndpointStall(USB_ControlRequest.wIndex,1);
 730              		.loc 1 221 39 view .LVU234
 731 0296 42F00402 		orr	r2, r2, #4
 732 029a 1A72     		strb	r2, [r3, #8]
 733              	.LVL39:
 222:/opt/XMClib/XMC_Peripheral_Library_v2.1.16/ThirdPartyLibraries/USBlib/USB/Core/XMC4000/USBController_XMC4000.c **** 				}
 734              		.loc 1 222 6 is_stmt 1 view .LVU235
 735 029c C0B2     		uxtb	r0, r0
 736 029e 4B6A     		ldr	r3, [r1, #36]
 737 02a0 0121     		movs	r1, #1
 738 02a2 9847     		blx	r3
 739              	.LVL40:
 740 02a4 DCE6     		b	.L29
 741              	.L64:
 742 02a6 00BF     		.align	2
 743              	.L63:
 744 02a8 00000000 		.word	USB_ControlRequest
 745 02ac 00000000 		.word	device
 746 02b0 00000000 		.word	USB_DeviceState
 747 02b4 39010000 		.word	device+313
 748              		.cfi_endproc
 749              	.LFE189:
 751              		.section	.text.USBD_HandleEP0_IN,"ax",%progbits
 752              		.align	1
 753              		.p2align 2,,3
 754              		.global	USBD_HandleEP0_IN
 755              		.syntax unified
 756              		.thumb
 757              		.thumb_func
 758              		.fpu fpv4-sp-d16
 760              	USBD_HandleEP0_IN:
 761              	.LFB190:
 259:/opt/XMClib/XMC_Peripheral_Library_v2.1.16/ThirdPartyLibraries/USBlib/USB/Core/XMC4000/USBController_XMC4000.c **** 	if (device.EP0_State == IN_DATA) {
 762              		.loc 1 259 26 view -0
 763              		.cfi_startproc
 764              		@ args = 0, pretend = 0, frame = 0
 765              		@ frame_needed = 0, uses_anonymous_args = 0
 260:/opt/XMClib/XMC_Peripheral_Library_v2.1.16/ThirdPartyLibraries/USBlib/USB/Core/XMC4000/USBController_XMC4000.c **** 		/* Read zero length out data packet */
 766              		.loc 1 260 2 view .LVU237
 259:/opt/XMClib/XMC_Peripheral_Library_v2.1.16/ThirdPartyLibraries/USBlib/USB/Core/XMC4000/USBController_XMC4000.c **** 	if (device.EP0_State == IN_DATA) {
 767              		.loc 1 259 26 is_stmt 0 view .LVU238
 768 0000 10B5     		push	{r4, lr}
 769              	.LCFI7:
 770              		.cfi_def_cfa_offset 8
 771              		.cfi_offset 4, -8
 772              		.cfi_offset 14, -4
 260:/opt/XMClib/XMC_Peripheral_Library_v2.1.16/ThirdPartyLibraries/USBlib/USB/Core/XMC4000/USBController_XMC4000.c **** 		/* Read zero length out data packet */
 773              		.loc 1 260 12 view .LVU239
 774 0002 0A4C     		ldr	r4, .L70
 775 0004 94F83B31 		ldrb	r3, [r4, #315]	@ zero_extendqisi2
 260:/opt/XMClib/XMC_Peripheral_Library_v2.1.16/ThirdPartyLibraries/USBlib/USB/Core/XMC4000/USBController_XMC4000.c **** 		/* Read zero length out data packet */
 776              		.loc 1 260 5 view .LVU240
 777 0008 022B     		cmp	r3, #2
 778 000a 05D0     		beq	.L69
 265:/opt/XMClib/XMC_Peripheral_Library_v2.1.16/ThirdPartyLibraries/USBlib/USB/Core/XMC4000/USBController_XMC4000.c **** 		/* Request new setup packet */
 779              		.loc 1 265 2 is_stmt 1 view .LVU241
 265:/opt/XMClib/XMC_Peripheral_Library_v2.1.16/ThirdPartyLibraries/USBlib/USB/Core/XMC4000/USBController_XMC4000.c **** 		/* Request new setup packet */
 780              		.loc 1 265 5 is_stmt 0 view .LVU242
 781 000c 032B     		cmp	r3, #3
 782 000e 0BD1     		bne	.L65
 783              		.loc 1 270 1 view .LVU243
 784 0010 BDE81040 		pop	{r4, lr}
 785              	.LCFI8:
 786              		.cfi_remember_state
 787              		.cfi_restore 14
 788              		.cfi_restore 4
 789              		.cfi_def_cfa_offset 0
 790 0014 FFF7FEBF 		b	USBD_HandleEP0_IN.part.0
 791              	.LVL41:
 792              	.L69:
 793              	.LCFI9:
 794              		.cfi_restore_state
 262:/opt/XMClib/XMC_Peripheral_Library_v2.1.16/ThirdPartyLibraries/USBlib/USB/Core/XMC4000/USBController_XMC4000.c **** 		device.EP0_State = OUT_STATUS;
 795              		.loc 1 262 3 is_stmt 1 view .LVU244
 262:/opt/XMClib/XMC_Peripheral_Library_v2.1.16/ThirdPartyLibraries/USBlib/USB/Core/XMC4000/USBController_XMC4000.c **** 		device.EP0_State = OUT_STATUS;
 796              		.loc 1 262 16 is_stmt 0 view .LVU245
 797 0018 2368     		ldr	r3, [r4]
 262:/opt/XMClib/XMC_Peripheral_Library_v2.1.16/ThirdPartyLibraries/USBlib/USB/Core/XMC4000/USBController_XMC4000.c **** 		device.EP0_State = OUT_STATUS;
 798              		.loc 1 262 3 view .LVU246
 799 001a 0021     		movs	r1, #0
 800 001c 9B6A     		ldr	r3, [r3, #40]
 801 001e 0846     		mov	r0, r1
 802 0020 9847     		blx	r3
 803              	.LVL42:
 263:/opt/XMClib/XMC_Peripheral_Library_v2.1.16/ThirdPartyLibraries/USBlib/USB/Core/XMC4000/USBController_XMC4000.c **** 	}
 804              		.loc 1 263 3 is_stmt 1 view .LVU247
 263:/opt/XMClib/XMC_Peripheral_Library_v2.1.16/ThirdPartyLibraries/USBlib/USB/Core/XMC4000/USBController_XMC4000.c **** 	}
 805              		.loc 1 263 20 is_stmt 0 view .LVU248
 806 0022 0523     		movs	r3, #5
 807 0024 84F83B31 		strb	r3, [r4, #315]
 265:/opt/XMClib/XMC_Peripheral_Library_v2.1.16/ThirdPartyLibraries/USBlib/USB/Core/XMC4000/USBController_XMC4000.c **** 		/* Request new setup packet */
 808              		.loc 1 265 2 is_stmt 1 view .LVU249
 809              	.L65:
 810              		.loc 1 270 1 is_stmt 0 view .LVU250
 811 0028 10BD     		pop	{r4, pc}
 812              	.L71:
 813 002a 00BF     		.align	2
 814              	.L70:
 815 002c 00000000 		.word	device
 816              		.cfi_endproc
 817              	.LFE190:
 819              		.section	.text.USBD_HandleEP0_OUT,"ax",%progbits
 820              		.align	1
 821              		.p2align 2,,3
 822              		.global	USBD_HandleEP0_OUT
 823              		.syntax unified
 824              		.thumb
 825              		.thumb_func
 826              		.fpu fpv4-sp-d16
 828              	USBD_HandleEP0_OUT:
 829              	.LFB191:
 271:/opt/XMClib/XMC_Peripheral_Library_v2.1.16/ThirdPartyLibraries/USBlib/USB/Core/XMC4000/USBController_XMC4000.c **** 
 272:/opt/XMClib/XMC_Peripheral_Library_v2.1.16/ThirdPartyLibraries/USBlib/USB/Core/XMC4000/USBController_XMC4000.c **** 
 273:/opt/XMClib/XMC_Peripheral_Library_v2.1.16/ThirdPartyLibraries/USBlib/USB/Core/XMC4000/USBController_XMC4000.c **** /**
 274:/opt/XMClib/XMC_Peripheral_Library_v2.1.16/ThirdPartyLibraries/USBlib/USB/Core/XMC4000/USBController_XMC4000.c ****  * \brief Handle complete OUT transfer on EP0
 275:/opt/XMClib/XMC_Peripheral_Library_v2.1.16/ThirdPartyLibraries/USBlib/USB/Core/XMC4000/USBController_XMC4000.c ****  *
 276:/opt/XMClib/XMC_Peripheral_Library_v2.1.16/ThirdPartyLibraries/USBlib/USB/Core/XMC4000/USBController_XMC4000.c ****  * Handles the OUT packet based on the state of endpoint 0. Starts a new read for new SETUP packets
 277:/opt/XMClib/XMC_Peripheral_Library_v2.1.16/ThirdPartyLibraries/USBlib/USB/Core/XMC4000/USBController_XMC4000.c ****  * When endpoint 0 is in \ref OUT_DATA state, it handles the received data and starts a write trans
 278:/opt/XMClib/XMC_Peripheral_Library_v2.1.16/ThirdPartyLibraries/USBlib/USB/Core/XMC4000/USBController_XMC4000.c ****  */
 279:/opt/XMClib/XMC_Peripheral_Library_v2.1.16/ThirdPartyLibraries/USBlib/USB/Core/XMC4000/USBController_XMC4000.c **** void USBD_HandleEP0_OUT() {
 830              		.loc 1 279 27 is_stmt 1 view -0
 831              		.cfi_startproc
 832              		@ args = 0, pretend = 0, frame = 0
 833              		@ frame_needed = 0, uses_anonymous_args = 0
 280:/opt/XMClib/XMC_Peripheral_Library_v2.1.16/ThirdPartyLibraries/USBlib/USB/Core/XMC4000/USBController_XMC4000.c **** 	if (device.EP0_State == OUT_DATA) {
 834              		.loc 1 280 2 view .LVU252
 279:/opt/XMClib/XMC_Peripheral_Library_v2.1.16/ThirdPartyLibraries/USBlib/USB/Core/XMC4000/USBController_XMC4000.c **** 	if (device.EP0_State == OUT_DATA) {
 835              		.loc 1 279 27 is_stmt 0 view .LVU253
 836 0000 10B5     		push	{r4, lr}
 837              	.LCFI10:
 838              		.cfi_def_cfa_offset 8
 839              		.cfi_offset 4, -8
 840              		.cfi_offset 14, -4
 841              		.loc 1 280 12 view .LVU254
 842 0002 0C4C     		ldr	r4, .L78
 843 0004 94F83B31 		ldrb	r3, [r4, #315]	@ zero_extendqisi2
 844              		.loc 1 280 5 view .LVU255
 845 0008 042B     		cmp	r3, #4
 846 000a 06D0     		beq	.L76
 281:/opt/XMClib/XMC_Peripheral_Library_v2.1.16/ThirdPartyLibraries/USBlib/USB/Core/XMC4000/USBController_XMC4000.c **** 		/* Now we have the data for handling the request */
 282:/opt/XMClib/XMC_Peripheral_Library_v2.1.16/ThirdPartyLibraries/USBlib/USB/Core/XMC4000/USBController_XMC4000.c **** 		USB_Device_ProcessControlRequest();
 283:/opt/XMClib/XMC_Peripheral_Library_v2.1.16/ThirdPartyLibraries/USBlib/USB/Core/XMC4000/USBController_XMC4000.c **** 		/* Zero length packet for status stage */
 284:/opt/XMClib/XMC_Peripheral_Library_v2.1.16/ThirdPartyLibraries/USBlib/USB/Core/XMC4000/USBController_XMC4000.c **** 		device.Driver->EndpointWrite(ENDPOINT_DIR_MASK & 0,0,0);
 285:/opt/XMClib/XMC_Peripheral_Library_v2.1.16/ThirdPartyLibraries/USBlib/USB/Core/XMC4000/USBController_XMC4000.c **** 		device.EP0_State = IN_STATUS;
 286:/opt/XMClib/XMC_Peripheral_Library_v2.1.16/ThirdPartyLibraries/USBlib/USB/Core/XMC4000/USBController_XMC4000.c **** 	}
 287:/opt/XMClib/XMC_Peripheral_Library_v2.1.16/ThirdPartyLibraries/USBlib/USB/Core/XMC4000/USBController_XMC4000.c **** 	if (device.EP0_State == OUT_STATUS) {
 847              		.loc 1 287 2 is_stmt 1 view .LVU256
 848              		.loc 1 287 5 is_stmt 0 view .LVU257
 849 000c 052B     		cmp	r3, #5
 850 000e 00D0     		beq	.L77
 288:/opt/XMClib/XMC_Peripheral_Library_v2.1.16/ThirdPartyLibraries/USBlib/USB/Core/XMC4000/USBController_XMC4000.c **** 		/* Request new setup packet */
 289:/opt/XMClib/XMC_Peripheral_Library_v2.1.16/ThirdPartyLibraries/USBlib/USB/Core/XMC4000/USBController_XMC4000.c **** 		device.Driver->EndpointReadStart(device.Endpoints[0].Address,24);
 290:/opt/XMClib/XMC_Peripheral_Library_v2.1.16/ThirdPartyLibraries/USBlib/USB/Core/XMC4000/USBController_XMC4000.c **** 		device.EP0_State = IDLE;
 291:/opt/XMClib/XMC_Peripheral_Library_v2.1.16/ThirdPartyLibraries/USBlib/USB/Core/XMC4000/USBController_XMC4000.c **** 	}
 292:/opt/XMClib/XMC_Peripheral_Library_v2.1.16/ThirdPartyLibraries/USBlib/USB/Core/XMC4000/USBController_XMC4000.c **** }
 851              		.loc 1 292 1 view .LVU258
 852 0010 10BD     		pop	{r4, pc}
 853              	.L77:
 854 0012 BDE81040 		pop	{r4, lr}
 855              	.LCFI11:
 856              		.cfi_remember_state
 857              		.cfi_restore 14
 858              		.cfi_restore 4
 859              		.cfi_def_cfa_offset 0
 860 0016 FFF7FEBF 		b	USBD_HandleEP0_OUT.part.0
 861              	.LVL43:
 862              	.L76:
 863              	.LCFI12:
 864              		.cfi_restore_state
 282:/opt/XMClib/XMC_Peripheral_Library_v2.1.16/ThirdPartyLibraries/USBlib/USB/Core/XMC4000/USBController_XMC4000.c **** 		/* Zero length packet for status stage */
 865              		.loc 1 282 3 is_stmt 1 view .LVU259
 866 001a FFF7FEFF 		bl	USB_Device_ProcessControlRequest
 867              	.LVL44:
 284:/opt/XMClib/XMC_Peripheral_Library_v2.1.16/ThirdPartyLibraries/USBlib/USB/Core/XMC4000/USBController_XMC4000.c **** 		device.EP0_State = IN_STATUS;
 868              		.loc 1 284 3 view .LVU260
 284:/opt/XMClib/XMC_Peripheral_Library_v2.1.16/ThirdPartyLibraries/USBlib/USB/Core/XMC4000/USBController_XMC4000.c **** 		device.EP0_State = IN_STATUS;
 869              		.loc 1 284 16 is_stmt 0 view .LVU261
 870 001e 2368     		ldr	r3, [r4]
 284:/opt/XMClib/XMC_Peripheral_Library_v2.1.16/ThirdPartyLibraries/USBlib/USB/Core/XMC4000/USBController_XMC4000.c **** 		device.EP0_State = IN_STATUS;
 871              		.loc 1 284 3 view .LVU262
 872 0020 0022     		movs	r2, #0
 873 0022 1B6B     		ldr	r3, [r3, #48]
 874 0024 1146     		mov	r1, r2
 875 0026 1046     		mov	r0, r2
 876 0028 9847     		blx	r3
 877              	.LVL45:
 285:/opt/XMClib/XMC_Peripheral_Library_v2.1.16/ThirdPartyLibraries/USBlib/USB/Core/XMC4000/USBController_XMC4000.c **** 	}
 878              		.loc 1 285 3 is_stmt 1 view .LVU263
 285:/opt/XMClib/XMC_Peripheral_Library_v2.1.16/ThirdPartyLibraries/USBlib/USB/Core/XMC4000/USBController_XMC4000.c **** 	}
 879              		.loc 1 285 20 is_stmt 0 view .LVU264
 880 002a 0323     		movs	r3, #3
 881 002c 84F83B31 		strb	r3, [r4, #315]
 287:/opt/XMClib/XMC_Peripheral_Library_v2.1.16/ThirdPartyLibraries/USBlib/USB/Core/XMC4000/USBController_XMC4000.c **** 		/* Request new setup packet */
 882              		.loc 1 287 2 is_stmt 1 view .LVU265
 883              		.loc 1 292 1 is_stmt 0 view .LVU266
 884 0030 10BD     		pop	{r4, pc}
 885              	.L79:
 886 0032 00BF     		.align	2
 887              	.L78:
 888 0034 00000000 		.word	device
 889              		.cfi_endproc
 890              	.LFE191:
 892              		.section	.text.USBD_HandleEP0_SETUP,"ax",%progbits
 893              		.align	1
 894              		.p2align 2,,3
 895              		.global	USBD_HandleEP0_SETUP
 896              		.syntax unified
 897              		.thumb
 898              		.thumb_func
 899              		.fpu fpv4-sp-d16
 901              	USBD_HandleEP0_SETUP:
 902              	.LFB192:
 293:/opt/XMClib/XMC_Peripheral_Library_v2.1.16/ThirdPartyLibraries/USBlib/USB/Core/XMC4000/USBController_XMC4000.c **** 
 294:/opt/XMClib/XMC_Peripheral_Library_v2.1.16/ThirdPartyLibraries/USBlib/USB/Core/XMC4000/USBController_XMC4000.c **** /**
 295:/opt/XMClib/XMC_Peripheral_Library_v2.1.16/ThirdPartyLibraries/USBlib/USB/Core/XMC4000/USBController_XMC4000.c ****  * \brief Handle SETUP packet on EP0
 296:/opt/XMClib/XMC_Peripheral_Library_v2.1.16/ThirdPartyLibraries/USBlib/USB/Core/XMC4000/USBController_XMC4000.c ****  *
 297:/opt/XMClib/XMC_Peripheral_Library_v2.1.16/ThirdPartyLibraries/USBlib/USB/Core/XMC4000/USBController_XMC4000.c ****  * Handles the setup package an switches to correct state. If data is send from host to device it s
 298:/opt/XMClib/XMC_Peripheral_Library_v2.1.16/ThirdPartyLibraries/USBlib/USB/Core/XMC4000/USBController_XMC4000.c ****  * When the hosts sends all data within the setup package and \ref wLength equals zero, starts proc
 299:/opt/XMClib/XMC_Peripheral_Library_v2.1.16/ThirdPartyLibraries/USBlib/USB/Core/XMC4000/USBController_XMC4000.c ****  * in status reponse including the switch to \ref IN_STATUS.
 300:/opt/XMClib/XMC_Peripheral_Library_v2.1.16/ThirdPartyLibraries/USBlib/USB/Core/XMC4000/USBController_XMC4000.c ****  * When the host expects data from the device, the function processes the control request and switc
 301:/opt/XMClib/XMC_Peripheral_Library_v2.1.16/ThirdPartyLibraries/USBlib/USB/Core/XMC4000/USBController_XMC4000.c ****  */
 302:/opt/XMClib/XMC_Peripheral_Library_v2.1.16/ThirdPartyLibraries/USBlib/USB/Core/XMC4000/USBController_XMC4000.c **** void USBD_HandleEP0_SETUP() {
 903              		.loc 1 302 29 is_stmt 1 view -0
 904              		.cfi_startproc
 905              		@ args = 0, pretend = 0, frame = 0
 906              		@ frame_needed = 0, uses_anonymous_args = 0
 303:/opt/XMClib/XMC_Peripheral_Library_v2.1.16/ThirdPartyLibraries/USBlib/USB/Core/XMC4000/USBController_XMC4000.c **** 	/* read setup package from ep0 */
 304:/opt/XMClib/XMC_Peripheral_Library_v2.1.16/ThirdPartyLibraries/USBlib/USB/Core/XMC4000/USBController_XMC4000.c **** 	int32_t ret_val = device.Driver->EndpointRead(0,(void*)&USB_ControlRequest,8);
 907              		.loc 1 304 2 view .LVU268
 302:/opt/XMClib/XMC_Peripheral_Library_v2.1.16/ThirdPartyLibraries/USBlib/USB/Core/XMC4000/USBController_XMC4000.c **** 	/* read setup package from ep0 */
 908              		.loc 1 302 29 is_stmt 0 view .LVU269
 909 0000 70B5     		push	{r4, r5, r6, lr}
 910              	.LCFI13:
 911              		.cfi_def_cfa_offset 16
 912              		.cfi_offset 4, -16
 913              		.cfi_offset 5, -12
 914              		.cfi_offset 6, -8
 915              		.cfi_offset 14, -4
 916              		.loc 1 304 26 view .LVU270
 917 0002 1A4C     		ldr	r4, .L87
 918              		.loc 1 304 20 view .LVU271
 919 0004 1A4D     		ldr	r5, .L87+4
 920              		.loc 1 304 33 view .LVU272
 921 0006 2368     		ldr	r3, [r4]
 922              		.loc 1 304 20 view .LVU273
 923 0008 2946     		mov	r1, r5
 924 000a DB6A     		ldr	r3, [r3, #44]
 925 000c 0822     		movs	r2, #8
 926 000e 0020     		movs	r0, #0
 927 0010 9847     		blx	r3
 928              	.LVL46:
 305:/opt/XMClib/XMC_Peripheral_Library_v2.1.16/ThirdPartyLibraries/USBlib/USB/Core/XMC4000/USBController_XMC4000.c **** #if NO_COPY_DRIVER
 306:/opt/XMClib/XMC_Peripheral_Library_v2.1.16/ThirdPartyLibraries/USBlib/USB/Core/XMC4000/USBController_XMC4000.c **** 	MEMCPY(&USB_ControlRequest,device.Endpoints[0].OutBuffer,sizeof(USB_ControlRequest));
 307:/opt/XMClib/XMC_Peripheral_Library_v2.1.16/ThirdPartyLibraries/USBlib/USB/Core/XMC4000/USBController_XMC4000.c **** #endif
 308:/opt/XMClib/XMC_Peripheral_Library_v2.1.16/ThirdPartyLibraries/USBlib/USB/Core/XMC4000/USBController_XMC4000.c **** 	device.IsSetupRecieved = true;
 929              		.loc 1 308 2 is_stmt 1 view .LVU274
 930              		.loc 1 308 25 is_stmt 0 view .LVU275
 931 0012 94F83E31 		ldrb	r3, [r4, #318]	@ zero_extendqisi2
 309:/opt/XMClib/XMC_Peripheral_Library_v2.1.16/ThirdPartyLibraries/USBlib/USB/Core/XMC4000/USBController_XMC4000.c **** 	if (ret_val != 8 )
 932              		.loc 1 309 5 view .LVU276
 933 0016 0828     		cmp	r0, #8
 308:/opt/XMClib/XMC_Peripheral_Library_v2.1.16/ThirdPartyLibraries/USBlib/USB/Core/XMC4000/USBController_XMC4000.c **** 	if (ret_val != 8 )
 934              		.loc 1 308 25 view .LVU277
 935 0018 43F00203 		orr	r3, r3, #2
 936 001c 84F83E31 		strb	r3, [r4, #318]
 937              		.loc 1 309 2 is_stmt 1 view .LVU278
 938              		.loc 1 309 5 is_stmt 0 view .LVU279
 939 0020 0FD1     		bne	.L80
 310:/opt/XMClib/XMC_Peripheral_Library_v2.1.16/ThirdPartyLibraries/USBlib/USB/Core/XMC4000/USBController_XMC4000.c **** 		return;
 311:/opt/XMClib/XMC_Peripheral_Library_v2.1.16/ThirdPartyLibraries/USBlib/USB/Core/XMC4000/USBController_XMC4000.c **** 
 312:/opt/XMClib/XMC_Peripheral_Library_v2.1.16/ThirdPartyLibraries/USBlib/USB/Core/XMC4000/USBController_XMC4000.c **** 	/* preprocess */
 313:/opt/XMClib/XMC_Peripheral_Library_v2.1.16/ThirdPartyLibraries/USBlib/USB/Core/XMC4000/USBController_XMC4000.c **** 	/* if length is zero we have only a in_status phase */
 314:/opt/XMClib/XMC_Peripheral_Library_v2.1.16/ThirdPartyLibraries/USBlib/USB/Core/XMC4000/USBController_XMC4000.c **** 	if (USB_ControlRequest.wLength==0) {
 940              		.loc 1 314 2 is_stmt 1 view .LVU280
 941              		.loc 1 314 24 is_stmt 0 view .LVU281
 942 0022 EE88     		ldrh	r6, [r5, #6]	@ unaligned
 943              		.loc 1 314 5 view .LVU282
 944 0024 76B1     		cbz	r6, .L85
 315:/opt/XMClib/XMC_Peripheral_Library_v2.1.16/ThirdPartyLibraries/USBlib/USB/Core/XMC4000/USBController_XMC4000.c **** 		device.EP0_State = IN_STATUS;
 316:/opt/XMClib/XMC_Peripheral_Library_v2.1.16/ThirdPartyLibraries/USBlib/USB/Core/XMC4000/USBController_XMC4000.c **** 		USB_Device_ProcessControlRequest();
 317:/opt/XMClib/XMC_Peripheral_Library_v2.1.16/ThirdPartyLibraries/USBlib/USB/Core/XMC4000/USBController_XMC4000.c **** 		device.Driver->EndpointWrite(0,0,0);
 318:/opt/XMClib/XMC_Peripheral_Library_v2.1.16/ThirdPartyLibraries/USBlib/USB/Core/XMC4000/USBController_XMC4000.c **** 	} else {
 319:/opt/XMClib/XMC_Peripheral_Library_v2.1.16/ThirdPartyLibraries/USBlib/USB/Core/XMC4000/USBController_XMC4000.c **** 		if (USB_ControlRequest.bmRequestType & CONTROL_REQTYPE_DIRECTION) {
 945              		.loc 1 319 3 is_stmt 1 view .LVU283
 946              		.loc 1 319 6 is_stmt 0 view .LVU284
 947 0026 95F90030 		ldrsb	r3, [r5]
 948 002a 002B     		cmp	r3, #0
 949 002c 17DB     		blt	.L86
 320:/opt/XMClib/XMC_Peripheral_Library_v2.1.16/ThirdPartyLibraries/USBlib/USB/Core/XMC4000/USBController_XMC4000.c **** 			device.EP0_State = IN_DATA;
 321:/opt/XMClib/XMC_Peripheral_Library_v2.1.16/ThirdPartyLibraries/USBlib/USB/Core/XMC4000/USBController_XMC4000.c **** 			USB_Device_ProcessControlRequest();
 322:/opt/XMClib/XMC_Peripheral_Library_v2.1.16/ThirdPartyLibraries/USBlib/USB/Core/XMC4000/USBController_XMC4000.c **** 		}
 323:/opt/XMClib/XMC_Peripheral_Library_v2.1.16/ThirdPartyLibraries/USBlib/USB/Core/XMC4000/USBController_XMC4000.c **** 		else {
 324:/opt/XMClib/XMC_Peripheral_Library_v2.1.16/ThirdPartyLibraries/USBlib/USB/Core/XMC4000/USBController_XMC4000.c **** 			device.EP0_State = OUT_DATA;
 950              		.loc 1 324 4 is_stmt 1 view .LVU285
 325:/opt/XMClib/XMC_Peripheral_Library_v2.1.16/ThirdPartyLibraries/USBlib/USB/Core/XMC4000/USBController_XMC4000.c **** 			/* Do not process request here, first read data */
 326:/opt/XMClib/XMC_Peripheral_Library_v2.1.16/ThirdPartyLibraries/USBlib/USB/Core/XMC4000/USBController_XMC4000.c **** 			device.Driver->EndpointReadStart(0,USB_ControlRequest.wLength);
 951              		.loc 1 326 17 is_stmt 0 view .LVU286
 952 002e 2368     		ldr	r3, [r4]
 324:/opt/XMClib/XMC_Peripheral_Library_v2.1.16/ThirdPartyLibraries/USBlib/USB/Core/XMC4000/USBController_XMC4000.c **** 			/* Do not process request here, first read data */
 953              		.loc 1 324 21 view .LVU287
 954 0030 0422     		movs	r2, #4
 955 0032 84F83B21 		strb	r2, [r4, #315]
 956              		.loc 1 326 4 is_stmt 1 view .LVU288
 957 0036 3146     		mov	r1, r6
 958 0038 9B6A     		ldr	r3, [r3, #40]
 327:/opt/XMClib/XMC_Peripheral_Library_v2.1.16/ThirdPartyLibraries/USBlib/USB/Core/XMC4000/USBController_XMC4000.c **** 		}
 328:/opt/XMClib/XMC_Peripheral_Library_v2.1.16/ThirdPartyLibraries/USBlib/USB/Core/XMC4000/USBController_XMC4000.c **** 	}
 329:/opt/XMClib/XMC_Peripheral_Library_v2.1.16/ThirdPartyLibraries/USBlib/USB/Core/XMC4000/USBController_XMC4000.c **** }
 959              		.loc 1 329 1 is_stmt 0 view .LVU289
 960 003a BDE87040 		pop	{r4, r5, r6, lr}
 961              	.LCFI14:
 962              		.cfi_remember_state
 963              		.cfi_restore 14
 964              		.cfi_restore 6
 965              		.cfi_restore 5
 966              		.cfi_restore 4
 967              		.cfi_def_cfa_offset 0
 326:/opt/XMClib/XMC_Peripheral_Library_v2.1.16/ThirdPartyLibraries/USBlib/USB/Core/XMC4000/USBController_XMC4000.c **** 		}
 968              		.loc 1 326 4 view .LVU290
 969 003e 0020     		movs	r0, #0
 970              	.LVL47:
 326:/opt/XMClib/XMC_Peripheral_Library_v2.1.16/ThirdPartyLibraries/USBlib/USB/Core/XMC4000/USBController_XMC4000.c **** 		}
 971              		.loc 1 326 4 view .LVU291
 972 0040 1847     		bx	r3
 973              	.LVL48:
 974              	.L80:
 975              	.LCFI15:
 976              		.cfi_restore_state
 977              		.loc 1 329 1 view .LVU292
 978 0042 70BD     		pop	{r4, r5, r6, pc}
 979              	.L85:
 980              	.LBB42:
 981              	.LBI42:
 302:/opt/XMClib/XMC_Peripheral_Library_v2.1.16/ThirdPartyLibraries/USBlib/USB/Core/XMC4000/USBController_XMC4000.c **** 	/* read setup package from ep0 */
 982              		.loc 1 302 6 is_stmt 1 view .LVU293
 983              	.LBB43:
 315:/opt/XMClib/XMC_Peripheral_Library_v2.1.16/ThirdPartyLibraries/USBlib/USB/Core/XMC4000/USBController_XMC4000.c **** 		USB_Device_ProcessControlRequest();
 984              		.loc 1 315 3 view .LVU294
 315:/opt/XMClib/XMC_Peripheral_Library_v2.1.16/ThirdPartyLibraries/USBlib/USB/Core/XMC4000/USBController_XMC4000.c **** 		USB_Device_ProcessControlRequest();
 985              		.loc 1 315 20 is_stmt 0 view .LVU295
 986 0044 0323     		movs	r3, #3
 987 0046 84F83B31 		strb	r3, [r4, #315]
 316:/opt/XMClib/XMC_Peripheral_Library_v2.1.16/ThirdPartyLibraries/USBlib/USB/Core/XMC4000/USBController_XMC4000.c **** 		device.Driver->EndpointWrite(0,0,0);
 988              		.loc 1 316 3 is_stmt 1 view .LVU296
 989 004a FFF7FEFF 		bl	USB_Device_ProcessControlRequest
 990              	.LVL49:
 317:/opt/XMClib/XMC_Peripheral_Library_v2.1.16/ThirdPartyLibraries/USBlib/USB/Core/XMC4000/USBController_XMC4000.c **** 	} else {
 991              		.loc 1 317 3 view .LVU297
 317:/opt/XMClib/XMC_Peripheral_Library_v2.1.16/ThirdPartyLibraries/USBlib/USB/Core/XMC4000/USBController_XMC4000.c **** 	} else {
 992              		.loc 1 317 16 is_stmt 0 view .LVU298
 993 004e 2368     		ldr	r3, [r4]
 317:/opt/XMClib/XMC_Peripheral_Library_v2.1.16/ThirdPartyLibraries/USBlib/USB/Core/XMC4000/USBController_XMC4000.c **** 	} else {
 994              		.loc 1 317 3 view .LVU299
 995 0050 3246     		mov	r2, r6
 996 0052 3146     		mov	r1, r6
 997 0054 3046     		mov	r0, r6
 998 0056 1B6B     		ldr	r3, [r3, #48]
 999              	.LBE43:
 1000              	.LBE42:
 1001              		.loc 1 329 1 view .LVU300
 1002 0058 BDE87040 		pop	{r4, r5, r6, lr}
 1003              	.LCFI16:
 1004              		.cfi_remember_state
 1005              		.cfi_restore 14
 1006              		.cfi_restore 6
 1007              		.cfi_restore 5
 1008              		.cfi_restore 4
 1009              		.cfi_def_cfa_offset 0
 1010              	.LBB45:
 1011              	.LBB44:
 317:/opt/XMClib/XMC_Peripheral_Library_v2.1.16/ThirdPartyLibraries/USBlib/USB/Core/XMC4000/USBController_XMC4000.c **** 	} else {
 1012              		.loc 1 317 3 view .LVU301
 1013 005c 1847     		bx	r3
 1014              	.LVL50:
 1015              	.L86:
 1016              	.LCFI17:
 1017              		.cfi_restore_state
 317:/opt/XMClib/XMC_Peripheral_Library_v2.1.16/ThirdPartyLibraries/USBlib/USB/Core/XMC4000/USBController_XMC4000.c **** 	} else {
 1018              		.loc 1 317 3 view .LVU302
 1019              	.LBE44:
 1020              	.LBE45:
 320:/opt/XMClib/XMC_Peripheral_Library_v2.1.16/ThirdPartyLibraries/USBlib/USB/Core/XMC4000/USBController_XMC4000.c **** 			USB_Device_ProcessControlRequest();
 1021              		.loc 1 320 4 is_stmt 1 view .LVU303
 320:/opt/XMClib/XMC_Peripheral_Library_v2.1.16/ThirdPartyLibraries/USBlib/USB/Core/XMC4000/USBController_XMC4000.c **** 			USB_Device_ProcessControlRequest();
 1022              		.loc 1 320 21 is_stmt 0 view .LVU304
 1023 005e 0223     		movs	r3, #2
 1024 0060 84F83B31 		strb	r3, [r4, #315]
 321:/opt/XMClib/XMC_Peripheral_Library_v2.1.16/ThirdPartyLibraries/USBlib/USB/Core/XMC4000/USBController_XMC4000.c **** 		}
 1025              		.loc 1 321 4 is_stmt 1 view .LVU305
 1026              		.loc 1 329 1 is_stmt 0 view .LVU306
 1027 0064 BDE87040 		pop	{r4, r5, r6, lr}
 1028              	.LCFI18:
 1029              		.cfi_restore 14
 1030              		.cfi_restore 6
 1031              		.cfi_restore 5
 1032              		.cfi_restore 4
 1033              		.cfi_def_cfa_offset 0
 321:/opt/XMClib/XMC_Peripheral_Library_v2.1.16/ThirdPartyLibraries/USBlib/USB/Core/XMC4000/USBController_XMC4000.c **** 		}
 1034              		.loc 1 321 4 view .LVU307
 1035 0068 FFF7FEBF 		b	USB_Device_ProcessControlRequest
 1036              	.LVL51:
 1037              	.L88:
 321:/opt/XMClib/XMC_Peripheral_Library_v2.1.16/ThirdPartyLibraries/USBlib/USB/Core/XMC4000/USBController_XMC4000.c **** 		}
 1038              		.loc 1 321 4 view .LVU308
 1039              		.align	2
 1040              	.L87:
 1041 006c 00000000 		.word	device
 1042 0070 00000000 		.word	USB_ControlRequest
 1043              		.cfi_endproc
 1044              	.LFE192:
 1046              		.section	.text.USBD_SignalDeviceEventHandler,"ax",%progbits
 1047              		.align	1
 1048              		.p2align 2,,3
 1049              		.global	USBD_SignalDeviceEventHandler
 1050              		.syntax unified
 1051              		.thumb
 1052              		.thumb_func
 1053              		.fpu fpv4-sp-d16
 1055              	USBD_SignalDeviceEventHandler:
 1056              	.LVL52:
 1057              	.LFB193:
 330:/opt/XMClib/XMC_Peripheral_Library_v2.1.16/ThirdPartyLibraries/USBlib/USB/Core/XMC4000/USBController_XMC4000.c **** 
 331:/opt/XMClib/XMC_Peripheral_Library_v2.1.16/ThirdPartyLibraries/USBlib/USB/Core/XMC4000/USBController_XMC4000.c **** /**
 332:/opt/XMClib/XMC_Peripheral_Library_v2.1.16/ThirdPartyLibraries/USBlib/USB/Core/XMC4000/USBController_XMC4000.c ****  * @}
 333:/opt/XMClib/XMC_Peripheral_Library_v2.1.16/ThirdPartyLibraries/USBlib/USB/Core/XMC4000/USBController_XMC4000.c ****  */
 334:/opt/XMClib/XMC_Peripheral_Library_v2.1.16/ThirdPartyLibraries/USBlib/USB/Core/XMC4000/USBController_XMC4000.c **** 
 335:/opt/XMClib/XMC_Peripheral_Library_v2.1.16/ThirdPartyLibraries/USBlib/USB/Core/XMC4000/USBController_XMC4000.c **** /**
 336:/opt/XMClib/XMC_Peripheral_Library_v2.1.16/ThirdPartyLibraries/USBlib/USB/Core/XMC4000/USBController_XMC4000.c ****  * \brief Device event handler for XMC Driver
 337:/opt/XMClib/XMC_Peripheral_Library_v2.1.16/ThirdPartyLibraries/USBlib/USB/Core/XMC4000/USBController_XMC4000.c ****  *
 338:/opt/XMClib/XMC_Peripheral_Library_v2.1.16/ThirdPartyLibraries/USBlib/USB/Core/XMC4000/USBController_XMC4000.c ****  * The device can have several events, where it notifies the application about.
 339:/opt/XMClib/XMC_Peripheral_Library_v2.1.16/ThirdPartyLibraries/USBlib/USB/Core/XMC4000/USBController_XMC4000.c ****  *
 340:/opt/XMClib/XMC_Peripheral_Library_v2.1.16/ThirdPartyLibraries/USBlib/USB/Core/XMC4000/USBController_XMC4000.c ****  * \note Not all events are available on all chip series. (Power Events are only supported on XMC45
 341:/opt/XMClib/XMC_Peripheral_Library_v2.1.16/ThirdPartyLibraries/USBlib/USB/Core/XMC4000/USBController_XMC4000.c ****  * \see USB_USBD_EVENT
 342:/opt/XMClib/XMC_Peripheral_Library_v2.1.16/ThirdPartyLibraries/USBlib/USB/Core/XMC4000/USBController_XMC4000.c ****  */
 343:/opt/XMClib/XMC_Peripheral_Library_v2.1.16/ThirdPartyLibraries/USBlib/USB/Core/XMC4000/USBController_XMC4000.c **** void USBD_SignalDeviceEventHandler(XMC_USBD_EVENT_t event) {
 1058              		.loc 1 343 60 is_stmt 1 view -0
 1059              		.cfi_startproc
 1060              		@ args = 0, pretend = 0, frame = 8
 1061              		@ frame_needed = 0, uses_anonymous_args = 0
 344:/opt/XMClib/XMC_Peripheral_Library_v2.1.16/ThirdPartyLibraries/USBlib/USB/Core/XMC4000/USBController_XMC4000.c **** 	int i;
 1062              		.loc 1 344 2 view .LVU310
 345:/opt/XMClib/XMC_Peripheral_Library_v2.1.16/ThirdPartyLibraries/USBlib/USB/Core/XMC4000/USBController_XMC4000.c **** 	switch (event) {
 1063              		.loc 1 345 2 view .LVU311
 343:/opt/XMClib/XMC_Peripheral_Library_v2.1.16/ThirdPartyLibraries/USBlib/USB/Core/XMC4000/USBController_XMC4000.c **** 	int i;
 1064              		.loc 1 343 60 is_stmt 0 view .LVU312
 1065 0000 F0B5     		push	{r4, r5, r6, r7, lr}
 1066              	.LCFI19:
 1067              		.cfi_def_cfa_offset 20
 1068              		.cfi_offset 4, -20
 1069              		.cfi_offset 5, -16
 1070              		.cfi_offset 6, -12
 1071              		.cfi_offset 7, -8
 1072              		.cfi_offset 14, -4
 1073 0002 83B0     		sub	sp, sp, #12
 1074              	.LCFI20:
 1075              		.cfi_def_cfa_offset 32
 1076 0004 0928     		cmp	r0, #9
 1077 0006 0BD8     		bhi	.L89
 1078 0008 DFE800F0 		tbb	[pc, r0]
 1079              	.L92:
 1080 000c 0C       		.byte	(.L99-.L92)/2
 1081 000d 36       		.byte	(.L98-.L92)/2
 1082 000e 40       		.byte	(.L97-.L92)/2
 1083 000f 45       		.byte	(.L96-.L92)/2
 1084 0010 4D       		.byte	(.L95-.L92)/2
 1085 0011 0A       		.byte	(.L89-.L92)/2
 1086 0012 86       		.byte	(.L94-.L92)/2
 1087 0013 92       		.byte	(.L93-.L92)/2
 1088 0014 0A       		.byte	(.L89-.L92)/2
 1089 0015 05       		.byte	(.L91-.L92)/2
 1090              		.p2align 1
 1091              	.L91:
 346:/opt/XMClib/XMC_Peripheral_Library_v2.1.16/ThirdPartyLibraries/USBlib/USB/Core/XMC4000/USBController_XMC4000.c **** 	case XMC_USBD_EVENT_RESET:
 347:/opt/XMClib/XMC_Peripheral_Library_v2.1.16/ThirdPartyLibraries/USBlib/USB/Core/XMC4000/USBController_XMC4000.c **** 		USB_DeviceState = DEVICE_STATE_Default;
 348:/opt/XMClib/XMC_Peripheral_Library_v2.1.16/ThirdPartyLibraries/USBlib/USB/Core/XMC4000/USBController_XMC4000.c **** 		device.EP0_State = IDLE;
 349:/opt/XMClib/XMC_Peripheral_Library_v2.1.16/ThirdPartyLibraries/USBlib/USB/Core/XMC4000/USBController_XMC4000.c **** 		device.RemoteWakeUp = 0;
 350:/opt/XMClib/XMC_Peripheral_Library_v2.1.16/ThirdPartyLibraries/USBlib/USB/Core/XMC4000/USBController_XMC4000.c **** 		/* Reset endpoints and configuration */
 351:/opt/XMClib/XMC_Peripheral_Library_v2.1.16/ThirdPartyLibraries/USBlib/USB/Core/XMC4000/USBController_XMC4000.c **** 		for (i=0;i<(uint8_t)XMC_USBD_NUM_EPS; i++) {
 352:/opt/XMClib/XMC_Peripheral_Library_v2.1.16/ThirdPartyLibraries/USBlib/USB/Core/XMC4000/USBController_XMC4000.c **** 			device.Endpoints[i].InInUse = 0;
 353:/opt/XMClib/XMC_Peripheral_Library_v2.1.16/ThirdPartyLibraries/USBlib/USB/Core/XMC4000/USBController_XMC4000.c **** 			device.Endpoints[i].OutInUse = 0;
 354:/opt/XMClib/XMC_Peripheral_Library_v2.1.16/ThirdPartyLibraries/USBlib/USB/Core/XMC4000/USBController_XMC4000.c **** 			device.Endpoints[i].IsHalted = 0;
 355:/opt/XMClib/XMC_Peripheral_Library_v2.1.16/ThirdPartyLibraries/USBlib/USB/Core/XMC4000/USBController_XMC4000.c **** 			if (i!=0 && device.Endpoints[i].IsConfigured) {
 356:/opt/XMClib/XMC_Peripheral_Library_v2.1.16/ThirdPartyLibraries/USBlib/USB/Core/XMC4000/USBController_XMC4000.c **** 				device.Driver->EndpointUnconfigure(device.Endpoints[i].Address);
 357:/opt/XMClib/XMC_Peripheral_Library_v2.1.16/ThirdPartyLibraries/USBlib/USB/Core/XMC4000/USBController_XMC4000.c **** 				device.Endpoints[i].IsConfigured = 0;
 358:/opt/XMClib/XMC_Peripheral_Library_v2.1.16/ThirdPartyLibraries/USBlib/USB/Core/XMC4000/USBController_XMC4000.c **** 				device.Endpoints[i].IsEnabled = 0;
 359:/opt/XMClib/XMC_Peripheral_Library_v2.1.16/ThirdPartyLibraries/USBlib/USB/Core/XMC4000/USBController_XMC4000.c **** 			}
 360:/opt/XMClib/XMC_Peripheral_Library_v2.1.16/ThirdPartyLibraries/USBlib/USB/Core/XMC4000/USBController_XMC4000.c **** 		}
 361:/opt/XMClib/XMC_Peripheral_Library_v2.1.16/ThirdPartyLibraries/USBlib/USB/Core/XMC4000/USBController_XMC4000.c **** 		device.Configuration = 0;
 362:/opt/XMClib/XMC_Peripheral_Library_v2.1.16/ThirdPartyLibraries/USBlib/USB/Core/XMC4000/USBController_XMC4000.c **** 		for (i=0;i<NUM_INTERFACES;i++) {
 363:/opt/XMClib/XMC_Peripheral_Library_v2.1.16/ThirdPartyLibraries/USBlib/USB/Core/XMC4000/USBController_XMC4000.c **** 			device.InterfaceSettings[i] = 0;
 364:/opt/XMClib/XMC_Peripheral_Library_v2.1.16/ThirdPartyLibraries/USBlib/USB/Core/XMC4000/USBController_XMC4000.c **** 		}
 365:/opt/XMClib/XMC_Peripheral_Library_v2.1.16/ThirdPartyLibraries/USBlib/USB/Core/XMC4000/USBController_XMC4000.c **** 		device.Driver->EndpointReadStart(device.Endpoints[0].Address,24);
 366:/opt/XMClib/XMC_Peripheral_Library_v2.1.16/ThirdPartyLibraries/USBlib/USB/Core/XMC4000/USBController_XMC4000.c **** 		break;
 367:/opt/XMClib/XMC_Peripheral_Library_v2.1.16/ThirdPartyLibraries/USBlib/USB/Core/XMC4000/USBController_XMC4000.c **** 	case XMC_USBD_EVENT_SOF:
 368:/opt/XMClib/XMC_Peripheral_Library_v2.1.16/ThirdPartyLibraries/USBlib/USB/Core/XMC4000/USBController_XMC4000.c **** 		EVENT_USB_Device_StartOfFrame();
 1092              		.loc 1 368 3 is_stmt 1 view .LVU313
 369:/opt/XMClib/XMC_Peripheral_Library_v2.1.16/ThirdPartyLibraries/USBlib/USB/Core/XMC4000/USBController_XMC4000.c **** 		break;
 370:/opt/XMClib/XMC_Peripheral_Library_v2.1.16/ThirdPartyLibraries/USBlib/USB/Core/XMC4000/USBController_XMC4000.c **** 	case XMC_USBD_EVENT_CONNECT:
 371:/opt/XMClib/XMC_Peripheral_Library_v2.1.16/ThirdPartyLibraries/USBlib/USB/Core/XMC4000/USBController_XMC4000.c **** 		EVENT_USB_Device_Connect();
 372:/opt/XMClib/XMC_Peripheral_Library_v2.1.16/ThirdPartyLibraries/USBlib/USB/Core/XMC4000/USBController_XMC4000.c **** 		break;
 373:/opt/XMClib/XMC_Peripheral_Library_v2.1.16/ThirdPartyLibraries/USBlib/USB/Core/XMC4000/USBController_XMC4000.c **** 	case XMC_USBD_EVENT_DISCONNECT:
 374:/opt/XMClib/XMC_Peripheral_Library_v2.1.16/ThirdPartyLibraries/USBlib/USB/Core/XMC4000/USBController_XMC4000.c **** 		USB_DeviceState = DEVICE_STATE_Powered;
 375:/opt/XMClib/XMC_Peripheral_Library_v2.1.16/ThirdPartyLibraries/USBlib/USB/Core/XMC4000/USBController_XMC4000.c **** 		EVENT_USB_Device_Disconnect();
 376:/opt/XMClib/XMC_Peripheral_Library_v2.1.16/ThirdPartyLibraries/USBlib/USB/Core/XMC4000/USBController_XMC4000.c **** 		break;
 377:/opt/XMClib/XMC_Peripheral_Library_v2.1.16/ThirdPartyLibraries/USBlib/USB/Core/XMC4000/USBController_XMC4000.c **** 	case XMC_USBD_EVENT_POWER_OFF:
 378:/opt/XMClib/XMC_Peripheral_Library_v2.1.16/ThirdPartyLibraries/USBlib/USB/Core/XMC4000/USBController_XMC4000.c **** 		 USB_DeviceState = DEVICE_STATE_Unattached;
 379:/opt/XMClib/XMC_Peripheral_Library_v2.1.16/ThirdPartyLibraries/USBlib/USB/Core/XMC4000/USBController_XMC4000.c **** 		 device.Driver->EndpointUnconfigure(0);
 380:/opt/XMClib/XMC_Peripheral_Library_v2.1.16/ThirdPartyLibraries/USBlib/USB/Core/XMC4000/USBController_XMC4000.c **** 		 break;
 381:/opt/XMClib/XMC_Peripheral_Library_v2.1.16/ThirdPartyLibraries/USBlib/USB/Core/XMC4000/USBController_XMC4000.c ****     case XMC_USBD_EVENT_POWER_ON:
 382:/opt/XMClib/XMC_Peripheral_Library_v2.1.16/ThirdPartyLibraries/USBlib/USB/Core/XMC4000/USBController_XMC4000.c **** 		 USB_DeviceState = DEVICE_STATE_Powered;
 383:/opt/XMClib/XMC_Peripheral_Library_v2.1.16/ThirdPartyLibraries/USBlib/USB/Core/XMC4000/USBController_XMC4000.c **** 		 memset(&device,0x0,sizeof(USB_Device_t));
 384:/opt/XMClib/XMC_Peripheral_Library_v2.1.16/ThirdPartyLibraries/USBlib/USB/Core/XMC4000/USBController_XMC4000.c **** 		 device.Driver = &Driver_USBD0;
 385:/opt/XMClib/XMC_Peripheral_Library_v2.1.16/ThirdPartyLibraries/USBlib/USB/Core/XMC4000/USBController_XMC4000.c **** 		 device.EP0_State = IDLE;
 386:/opt/XMClib/XMC_Peripheral_Library_v2.1.16/ThirdPartyLibraries/USBlib/USB/Core/XMC4000/USBController_XMC4000.c **** 		 device.Endpoints[0].InBuffer = endpoint0_in_buffer;
 387:/opt/XMClib/XMC_Peripheral_Library_v2.1.16/ThirdPartyLibraries/USBlib/USB/Core/XMC4000/USBController_XMC4000.c **** 		 device.Endpoints[0].InBufferLength = 256;
 388:/opt/XMClib/XMC_Peripheral_Library_v2.1.16/ThirdPartyLibraries/USBlib/USB/Core/XMC4000/USBController_XMC4000.c **** 		 device.Endpoints[0].OutBuffer = endpoint0_out_buffer;
 389:/opt/XMClib/XMC_Peripheral_Library_v2.1.16/ThirdPartyLibraries/USBlib/USB/Core/XMC4000/USBController_XMC4000.c **** 		 device.Endpoints[0].OutBufferLength = 256;
 390:/opt/XMClib/XMC_Peripheral_Library_v2.1.16/ThirdPartyLibraries/USBlib/USB/Core/XMC4000/USBController_XMC4000.c **** 		 device.Endpoints[0].Direction = 0;
 391:/opt/XMClib/XMC_Peripheral_Library_v2.1.16/ThirdPartyLibraries/USBlib/USB/Core/XMC4000/USBController_XMC4000.c **** 		 device.Endpoints[0].IsConfigured = 1;
 392:/opt/XMClib/XMC_Peripheral_Library_v2.1.16/ThirdPartyLibraries/USBlib/USB/Core/XMC4000/USBController_XMC4000.c **** 		 device.Endpoints[0].IsEnabled = 1;
 393:/opt/XMClib/XMC_Peripheral_Library_v2.1.16/ThirdPartyLibraries/USBlib/USB/Core/XMC4000/USBController_XMC4000.c **** 		 device.Endpoints[0].MaxPacketSize = 64;
 394:/opt/XMClib/XMC_Peripheral_Library_v2.1.16/ThirdPartyLibraries/USBlib/USB/Core/XMC4000/USBController_XMC4000.c **** 
 395:/opt/XMClib/XMC_Peripheral_Library_v2.1.16/ThirdPartyLibraries/USBlib/USB/Core/XMC4000/USBController_XMC4000.c **** 		  /* then configure endpoint 0 */
 396:/opt/XMClib/XMC_Peripheral_Library_v2.1.16/ThirdPartyLibraries/USBlib/USB/Core/XMC4000/USBController_XMC4000.c **** 		 device.Driver->EndpointConfigure(0,XMC_USBD_ENDPOINT_TYPE_CONTROL,
 397:/opt/XMClib/XMC_Peripheral_Library_v2.1.16/ThirdPartyLibraries/USBlib/USB/Core/XMC4000/USBController_XMC4000.c **** 					   (uint8_t)XMC_USBD_MAX_PACKET_SIZE);
 398:/opt/XMClib/XMC_Peripheral_Library_v2.1.16/ThirdPartyLibraries/USBlib/USB/Core/XMC4000/USBController_XMC4000.c **** 
 399:/opt/XMClib/XMC_Peripheral_Library_v2.1.16/ThirdPartyLibraries/USBlib/USB/Core/XMC4000/USBController_XMC4000.c **** 		break;
 400:/opt/XMClib/XMC_Peripheral_Library_v2.1.16/ThirdPartyLibraries/USBlib/USB/Core/XMC4000/USBController_XMC4000.c **** 	case XMC_USBD_EVENT_REMOTE_WAKEUP:
 401:/opt/XMClib/XMC_Peripheral_Library_v2.1.16/ThirdPartyLibraries/USBlib/USB/Core/XMC4000/USBController_XMC4000.c **** 		break;
 402:/opt/XMClib/XMC_Peripheral_Library_v2.1.16/ThirdPartyLibraries/USBlib/USB/Core/XMC4000/USBController_XMC4000.c **** 	case XMC_USBD_EVENT_RESUME:
 403:/opt/XMClib/XMC_Peripheral_Library_v2.1.16/ThirdPartyLibraries/USBlib/USB/Core/XMC4000/USBController_XMC4000.c **** 		USB_DeviceState = device.PreSuspendDeviceState;
 404:/opt/XMClib/XMC_Peripheral_Library_v2.1.16/ThirdPartyLibraries/USBlib/USB/Core/XMC4000/USBController_XMC4000.c **** 		EVENT_USB_Device_WakeUp();
 405:/opt/XMClib/XMC_Peripheral_Library_v2.1.16/ThirdPartyLibraries/USBlib/USB/Core/XMC4000/USBController_XMC4000.c **** 		break;
 406:/opt/XMClib/XMC_Peripheral_Library_v2.1.16/ThirdPartyLibraries/USBlib/USB/Core/XMC4000/USBController_XMC4000.c **** 	case XMC_USBD_EVENT_SUSPEND:
 407:/opt/XMClib/XMC_Peripheral_Library_v2.1.16/ThirdPartyLibraries/USBlib/USB/Core/XMC4000/USBController_XMC4000.c **** 		device.PreSuspendDeviceState = USB_DeviceState;
 408:/opt/XMClib/XMC_Peripheral_Library_v2.1.16/ThirdPartyLibraries/USBlib/USB/Core/XMC4000/USBController_XMC4000.c **** 		USB_DeviceState = DEVICE_STATE_Suspended;
 409:/opt/XMClib/XMC_Peripheral_Library_v2.1.16/ThirdPartyLibraries/USBlib/USB/Core/XMC4000/USBController_XMC4000.c **** 		EVENT_USB_Device_Suspend();
 410:/opt/XMClib/XMC_Peripheral_Library_v2.1.16/ThirdPartyLibraries/USBlib/USB/Core/XMC4000/USBController_XMC4000.c **** 		break;
 411:/opt/XMClib/XMC_Peripheral_Library_v2.1.16/ThirdPartyLibraries/USBlib/USB/Core/XMC4000/USBController_XMC4000.c **** 	default:
 412:/opt/XMClib/XMC_Peripheral_Library_v2.1.16/ThirdPartyLibraries/USBlib/USB/Core/XMC4000/USBController_XMC4000.c **** 		return;
 413:/opt/XMClib/XMC_Peripheral_Library_v2.1.16/ThirdPartyLibraries/USBlib/USB/Core/XMC4000/USBController_XMC4000.c **** 	}
 414:/opt/XMClib/XMC_Peripheral_Library_v2.1.16/ThirdPartyLibraries/USBlib/USB/Core/XMC4000/USBController_XMC4000.c **** }
 1093              		.loc 1 414 1 is_stmt 0 view .LVU314
 1094 0016 03B0     		add	sp, sp, #12
 1095              	.LCFI21:
 1096              		.cfi_remember_state
 1097              		.cfi_def_cfa_offset 20
 1098              		@ sp needed
 1099 0018 BDE8F040 		pop	{r4, r5, r6, r7, lr}
 1100              	.LCFI22:
 1101              		.cfi_restore 14
 1102              		.cfi_restore 7
 1103              		.cfi_restore 6
 1104              		.cfi_restore 5
 1105              		.cfi_restore 4
 1106              		.cfi_def_cfa_offset 0
 368:/opt/XMClib/XMC_Peripheral_Library_v2.1.16/ThirdPartyLibraries/USBlib/USB/Core/XMC4000/USBController_XMC4000.c **** 		break;
 1107              		.loc 1 368 3 view .LVU315
 1108 001c FFF7FEBF 		b	EVENT_USB_Device_StartOfFrame
 1109              	.LVL53:
 1110              	.L89:
 1111              	.LCFI23:
 1112              		.cfi_restore_state
 1113              		.loc 1 414 1 view .LVU316
 1114 0020 03B0     		add	sp, sp, #12
 1115              	.LCFI24:
 1116              		.cfi_remember_state
 1117              		.cfi_def_cfa_offset 20
 1118              		@ sp needed
 1119 0022 F0BD     		pop	{r4, r5, r6, r7, pc}
 1120              	.L99:
 1121              	.LCFI25:
 1122              		.cfi_restore_state
 382:/opt/XMClib/XMC_Peripheral_Library_v2.1.16/ThirdPartyLibraries/USBlib/USB/Core/XMC4000/USBController_XMC4000.c **** 		 memset(&device,0x0,sizeof(USB_Device_t));
 1123              		.loc 1 382 4 is_stmt 1 view .LVU317
 383:/opt/XMClib/XMC_Peripheral_Library_v2.1.16/ThirdPartyLibraries/USBlib/USB/Core/XMC4000/USBController_XMC4000.c **** 		 device.Driver = &Driver_USBD0;
 1124              		.loc 1 383 4 is_stmt 0 view .LVU318
 1125 0024 474B     		ldr	r3, .L111
 382:/opt/XMClib/XMC_Peripheral_Library_v2.1.16/ThirdPartyLibraries/USBlib/USB/Core/XMC4000/USBController_XMC4000.c **** 		 memset(&device,0x0,sizeof(USB_Device_t));
 1126              		.loc 1 382 20 view .LVU319
 1127 0026 484D     		ldr	r5, .L111+4
 1128 0028 0124     		movs	r4, #1
 383:/opt/XMClib/XMC_Peripheral_Library_v2.1.16/ThirdPartyLibraries/USBlib/USB/Core/XMC4000/USBController_XMC4000.c **** 		 device.Driver = &Driver_USBD0;
 1129              		.loc 1 383 4 view .LVU320
 1130 002a 1846     		mov	r0, r3
 1131              	.LVL54:
 383:/opt/XMClib/XMC_Peripheral_Library_v2.1.16/ThirdPartyLibraries/USBlib/USB/Core/XMC4000/USBController_XMC4000.c **** 		 device.Driver = &Driver_USBD0;
 1132              		.loc 1 383 4 view .LVU321
 1133 002c 4FF4A072 		mov	r2, #320
 1134 0030 0021     		movs	r1, #0
 382:/opt/XMClib/XMC_Peripheral_Library_v2.1.16/ThirdPartyLibraries/USBlib/USB/Core/XMC4000/USBController_XMC4000.c **** 		 memset(&device,0x0,sizeof(USB_Device_t));
 1135              		.loc 1 382 20 view .LVU322
 1136 0032 2C70     		strb	r4, [r5]
 383:/opt/XMClib/XMC_Peripheral_Library_v2.1.16/ThirdPartyLibraries/USBlib/USB/Core/XMC4000/USBController_XMC4000.c **** 		 device.Driver = &Driver_USBD0;
 1137              		.loc 1 383 4 is_stmt 1 view .LVU323
 1138 0034 FFF7FEFF 		bl	memset
 1139              	.LVL55:
 1140 0038 0346     		mov	r3, r0
 384:/opt/XMClib/XMC_Peripheral_Library_v2.1.16/ThirdPartyLibraries/USBlib/USB/Core/XMC4000/USBController_XMC4000.c **** 		 device.EP0_State = IDLE;
 1141              		.loc 1 384 4 view .LVU324
 384:/opt/XMClib/XMC_Peripheral_Library_v2.1.16/ThirdPartyLibraries/USBlib/USB/Core/XMC4000/USBController_XMC4000.c **** 		 device.EP0_State = IDLE;
 1142              		.loc 1 384 18 is_stmt 0 view .LVU325
 1143 003a 4448     		ldr	r0, .L111+8
 1144 003c 1860     		str	r0, [r3]
 385:/opt/XMClib/XMC_Peripheral_Library_v2.1.16/ThirdPartyLibraries/USBlib/USB/Core/XMC4000/USBController_XMC4000.c **** 		 device.Endpoints[0].InBuffer = endpoint0_in_buffer;
 1145              		.loc 1 385 4 is_stmt 1 view .LVU326
 386:/opt/XMClib/XMC_Peripheral_Library_v2.1.16/ThirdPartyLibraries/USBlib/USB/Core/XMC4000/USBController_XMC4000.c **** 		 device.Endpoints[0].InBufferLength = 256;
 1146              		.loc 1 386 4 view .LVU327
 387:/opt/XMClib/XMC_Peripheral_Library_v2.1.16/ThirdPartyLibraries/USBlib/USB/Core/XMC4000/USBController_XMC4000.c **** 		 device.Endpoints[0].OutBuffer = endpoint0_out_buffer;
 1147              		.loc 1 387 4 view .LVU328
 396:/opt/XMClib/XMC_Peripheral_Library_v2.1.16/ThirdPartyLibraries/USBlib/USB/Core/XMC4000/USBController_XMC4000.c **** 					   (uint8_t)XMC_USBD_MAX_PACKET_SIZE);
 1148              		.loc 1 396 4 is_stmt 0 view .LVU329
 1149 003e C069     		ldr	r0, [r0, #28]
 1150 0040 0190     		str	r0, [sp, #4]
 386:/opt/XMClib/XMC_Peripheral_Library_v2.1.16/ThirdPartyLibraries/USBlib/USB/Core/XMC4000/USBController_XMC4000.c **** 		 device.Endpoints[0].InBufferLength = 256;
 1151              		.loc 1 386 33 view .LVU330
 1152 0042 434A     		ldr	r2, .L111+12
 396:/opt/XMClib/XMC_Peripheral_Library_v2.1.16/ThirdPartyLibraries/USBlib/USB/Core/XMC4000/USBController_XMC4000.c **** 					   (uint8_t)XMC_USBD_MAX_PACKET_SIZE);
 1153              		.loc 1 396 4 view .LVU331
 1154 0044 DDED017A 		vldr.32	s15, [sp, #4]	@ int
 385:/opt/XMClib/XMC_Peripheral_Library_v2.1.16/ThirdPartyLibraries/USBlib/USB/Core/XMC4000/USBController_XMC4000.c **** 		 device.Endpoints[0].InBuffer = endpoint0_in_buffer;
 1155              		.loc 1 385 21 view .LVU332
 1156 0048 83F83B41 		strb	r4, [r3, #315]
 386:/opt/XMClib/XMC_Peripheral_Library_v2.1.16/ThirdPartyLibraries/USBlib/USB/Core/XMC4000/USBController_XMC4000.c **** 		 device.Endpoints[0].InBufferLength = 256;
 1157              		.loc 1 386 33 view .LVU333
 1158 004c 1A62     		str	r2, [r3, #32]
 388:/opt/XMClib/XMC_Peripheral_Library_v2.1.16/ThirdPartyLibraries/USBlib/USB/Core/XMC4000/USBController_XMC4000.c **** 		 device.Endpoints[0].OutBufferLength = 256;
 1159              		.loc 1 388 34 view .LVU334
 1160 004e 4149     		ldr	r1, .L111+16
 1161 0050 5961     		str	r1, [r3, #20]
 387:/opt/XMClib/XMC_Peripheral_Library_v2.1.16/ThirdPartyLibraries/USBlib/USB/Core/XMC4000/USBController_XMC4000.c **** 		 device.Endpoints[0].OutBuffer = endpoint0_out_buffer;
 1162              		.loc 1 387 39 view .LVU335
 1163 0052 4FF48072 		mov	r2, #256
 390:/opt/XMClib/XMC_Peripheral_Library_v2.1.16/ThirdPartyLibraries/USBlib/USB/Core/XMC4000/USBController_XMC4000.c **** 		 device.Endpoints[0].IsConfigured = 1;
 1164              		.loc 1 390 34 view .LVU336
 1165 0056 4FF00005 		mov	r5, #0
 391:/opt/XMClib/XMC_Peripheral_Library_v2.1.16/ThirdPartyLibraries/USBlib/USB/Core/XMC4000/USBController_XMC4000.c **** 		 device.Endpoints[0].IsEnabled = 1;
 1166              		.loc 1 391 37 view .LVU337
 1167 005a 41F20304 		movw	r4, #4099
 387:/opt/XMClib/XMC_Peripheral_Library_v2.1.16/ThirdPartyLibraries/USBlib/USB/Core/XMC4000/USBController_XMC4000.c **** 		 device.Endpoints[0].OutBuffer = endpoint0_out_buffer;
 1168              		.loc 1 387 39 view .LVU338
 1169 005e 5A62     		str	r2, [r3, #36]
 388:/opt/XMClib/XMC_Peripheral_Library_v2.1.16/ThirdPartyLibraries/USBlib/USB/Core/XMC4000/USBController_XMC4000.c **** 		 device.Endpoints[0].OutBufferLength = 256;
 1170              		.loc 1 388 4 is_stmt 1 view .LVU339
 389:/opt/XMClib/XMC_Peripheral_Library_v2.1.16/ThirdPartyLibraries/USBlib/USB/Core/XMC4000/USBController_XMC4000.c **** 		 device.Endpoints[0].Direction = 0;
 1171              		.loc 1 389 4 view .LVU340
 389:/opt/XMClib/XMC_Peripheral_Library_v2.1.16/ThirdPartyLibraries/USBlib/USB/Core/XMC4000/USBController_XMC4000.c **** 		 device.Endpoints[0].Direction = 0;
 1172              		.loc 1 389 40 is_stmt 0 view .LVU341
 1173 0060 9A61     		str	r2, [r3, #24]
 390:/opt/XMClib/XMC_Peripheral_Library_v2.1.16/ThirdPartyLibraries/USBlib/USB/Core/XMC4000/USBController_XMC4000.c **** 		 device.Endpoints[0].IsConfigured = 1;
 1174              		.loc 1 390 4 is_stmt 1 view .LVU342
 391:/opt/XMClib/XMC_Peripheral_Library_v2.1.16/ThirdPartyLibraries/USBlib/USB/Core/XMC4000/USBController_XMC4000.c **** 		 device.Endpoints[0].IsEnabled = 1;
 1175              		.loc 1 391 4 view .LVU343
 392:/opt/XMClib/XMC_Peripheral_Library_v2.1.16/ThirdPartyLibraries/USBlib/USB/Core/XMC4000/USBController_XMC4000.c **** 		 device.Endpoints[0].MaxPacketSize = 64;
 1176              		.loc 1 392 4 view .LVU344
 393:/opt/XMClib/XMC_Peripheral_Library_v2.1.16/ThirdPartyLibraries/USBlib/USB/Core/XMC4000/USBController_XMC4000.c **** 
 1177              		.loc 1 393 4 view .LVU345
 396:/opt/XMClib/XMC_Peripheral_Library_v2.1.16/ThirdPartyLibraries/USBlib/USB/Core/XMC4000/USBController_XMC4000.c **** 					   (uint8_t)XMC_USBD_MAX_PACKET_SIZE);
 1178              		.loc 1 396 4 view .LVU346
 1179 0062 0021     		movs	r1, #0
 390:/opt/XMClib/XMC_Peripheral_Library_v2.1.16/ThirdPartyLibraries/USBlib/USB/Core/XMC4000/USBController_XMC4000.c **** 		 device.Endpoints[0].IsConfigured = 1;
 1180              		.loc 1 390 34 is_stmt 0 view .LVU347
 1181 0064 1D71     		strb	r5, [r3, #4]
 391:/opt/XMClib/XMC_Peripheral_Library_v2.1.16/ThirdPartyLibraries/USBlib/USB/Core/XMC4000/USBController_XMC4000.c **** 		 device.Endpoints[0].IsEnabled = 1;
 1182              		.loc 1 391 37 view .LVU348
 1183 0066 1C81     		strh	r4, [r3, #8]	@ movhi
 396:/opt/XMClib/XMC_Peripheral_Library_v2.1.16/ThirdPartyLibraries/USBlib/USB/Core/XMC4000/USBController_XMC4000.c **** 					   (uint8_t)XMC_USBD_MAX_PACKET_SIZE);
 1184              		.loc 1 396 4 view .LVU349
 1185 0068 17EE903A 		vmov	r3, s15	@ int
 1186 006c 0846     		mov	r0, r1
 1187 006e 4022     		movs	r2, #64
 1188              		.loc 1 414 1 view .LVU350
 1189 0070 03B0     		add	sp, sp, #12
 1190              	.LCFI26:
 1191              		.cfi_remember_state
 1192              		.cfi_def_cfa_offset 20
 1193              		@ sp needed
 1194 0072 BDE8F040 		pop	{r4, r5, r6, r7, lr}
 1195              	.LCFI27:
 1196              		.cfi_restore 14
 1197              		.cfi_restore 7
 1198              		.cfi_restore 6
 1199              		.cfi_restore 5
 1200              		.cfi_restore 4
 1201              		.cfi_def_cfa_offset 0
 396:/opt/XMClib/XMC_Peripheral_Library_v2.1.16/ThirdPartyLibraries/USBlib/USB/Core/XMC4000/USBController_XMC4000.c **** 					   (uint8_t)XMC_USBD_MAX_PACKET_SIZE);
 1202              		.loc 1 396 4 view .LVU351
 1203 0076 1847     		bx	r3
 1204              	.LVL56:
 1205              	.L98:
 1206              	.LCFI28:
 1207              		.cfi_restore_state
 378:/opt/XMClib/XMC_Peripheral_Library_v2.1.16/ThirdPartyLibraries/USBlib/USB/Core/XMC4000/USBController_XMC4000.c **** 		 device.Driver->EndpointUnconfigure(0);
 1208              		.loc 1 378 4 is_stmt 1 view .LVU352
 379:/opt/XMClib/XMC_Peripheral_Library_v2.1.16/ThirdPartyLibraries/USBlib/USB/Core/XMC4000/USBController_XMC4000.c **** 		 break;
 1209              		.loc 1 379 10 is_stmt 0 view .LVU353
 1210 0078 324B     		ldr	r3, .L111
 378:/opt/XMClib/XMC_Peripheral_Library_v2.1.16/ThirdPartyLibraries/USBlib/USB/Core/XMC4000/USBController_XMC4000.c **** 		 device.Driver->EndpointUnconfigure(0);
 1211              		.loc 1 378 20 view .LVU354
 1212 007a 334A     		ldr	r2, .L111+4
 379:/opt/XMClib/XMC_Peripheral_Library_v2.1.16/ThirdPartyLibraries/USBlib/USB/Core/XMC4000/USBController_XMC4000.c **** 		 break;
 1213              		.loc 1 379 17 view .LVU355
 1214 007c 1B68     		ldr	r3, [r3]
 379:/opt/XMClib/XMC_Peripheral_Library_v2.1.16/ThirdPartyLibraries/USBlib/USB/Core/XMC4000/USBController_XMC4000.c **** 		 break;
 1215              		.loc 1 379 4 view .LVU356
 1216 007e 1B6A     		ldr	r3, [r3, #32]
 378:/opt/XMClib/XMC_Peripheral_Library_v2.1.16/ThirdPartyLibraries/USBlib/USB/Core/XMC4000/USBController_XMC4000.c **** 		 device.Driver->EndpointUnconfigure(0);
 1217              		.loc 1 378 20 view .LVU357
 1218 0080 0020     		movs	r0, #0
 1219              	.LVL57:
 378:/opt/XMClib/XMC_Peripheral_Library_v2.1.16/ThirdPartyLibraries/USBlib/USB/Core/XMC4000/USBController_XMC4000.c **** 		 device.Driver->EndpointUnconfigure(0);
 1220              		.loc 1 378 20 view .LVU358
 1221 0082 1070     		strb	r0, [r2]
 379:/opt/XMClib/XMC_Peripheral_Library_v2.1.16/ThirdPartyLibraries/USBlib/USB/Core/XMC4000/USBController_XMC4000.c **** 		 break;
 1222              		.loc 1 379 4 is_stmt 1 view .LVU359
 1223              		.loc 1 414 1 is_stmt 0 view .LVU360
 1224 0084 03B0     		add	sp, sp, #12
 1225              	.LCFI29:
 1226              		.cfi_remember_state
 1227              		.cfi_def_cfa_offset 20
 1228              		@ sp needed
 1229 0086 BDE8F040 		pop	{r4, r5, r6, r7, lr}
 1230              	.LCFI30:
 1231              		.cfi_restore 14
 1232              		.cfi_restore 7
 1233              		.cfi_restore 6
 1234              		.cfi_restore 5
 1235              		.cfi_restore 4
 1236              		.cfi_def_cfa_offset 0
 379:/opt/XMClib/XMC_Peripheral_Library_v2.1.16/ThirdPartyLibraries/USBlib/USB/Core/XMC4000/USBController_XMC4000.c **** 		 break;
 1237              		.loc 1 379 4 view .LVU361
 1238 008a 1847     		bx	r3
 1239              	.LVL58:
 1240              	.L97:
 1241              	.LCFI31:
 1242              		.cfi_restore_state
 371:/opt/XMClib/XMC_Peripheral_Library_v2.1.16/ThirdPartyLibraries/USBlib/USB/Core/XMC4000/USBController_XMC4000.c **** 		break;
 1243              		.loc 1 371 3 is_stmt 1 view .LVU362
 1244              		.loc 1 414 1 is_stmt 0 view .LVU363
 1245 008c 03B0     		add	sp, sp, #12
 1246              	.LCFI32:
 1247              		.cfi_remember_state
 1248              		.cfi_def_cfa_offset 20
 1249              		@ sp needed
 1250 008e BDE8F040 		pop	{r4, r5, r6, r7, lr}
 1251              	.LCFI33:
 1252              		.cfi_restore 14
 1253              		.cfi_restore 7
 1254              		.cfi_restore 6
 1255              		.cfi_restore 5
 1256              		.cfi_restore 4
 1257              		.cfi_def_cfa_offset 0
 371:/opt/XMClib/XMC_Peripheral_Library_v2.1.16/ThirdPartyLibraries/USBlib/USB/Core/XMC4000/USBController_XMC4000.c **** 		break;
 1258              		.loc 1 371 3 view .LVU364
 1259 0092 FFF7FEBF 		b	EVENT_USB_Device_Connect
 1260              	.LVL59:
 1261              	.L96:
 1262              	.LCFI34:
 1263              		.cfi_restore_state
 374:/opt/XMClib/XMC_Peripheral_Library_v2.1.16/ThirdPartyLibraries/USBlib/USB/Core/XMC4000/USBController_XMC4000.c **** 		EVENT_USB_Device_Disconnect();
 1264              		.loc 1 374 3 is_stmt 1 view .LVU365
 374:/opt/XMClib/XMC_Peripheral_Library_v2.1.16/ThirdPartyLibraries/USBlib/USB/Core/XMC4000/USBController_XMC4000.c **** 		EVENT_USB_Device_Disconnect();
 1265              		.loc 1 374 19 is_stmt 0 view .LVU366
 1266 0096 2C4B     		ldr	r3, .L111+4
 1267 0098 0122     		movs	r2, #1
 1268 009a 1A70     		strb	r2, [r3]
 375:/opt/XMClib/XMC_Peripheral_Library_v2.1.16/ThirdPartyLibraries/USBlib/USB/Core/XMC4000/USBController_XMC4000.c **** 		break;
 1269              		.loc 1 375 3 is_stmt 1 view .LVU367
 1270              		.loc 1 414 1 is_stmt 0 view .LVU368
 1271 009c 03B0     		add	sp, sp, #12
 1272              	.LCFI35:
 1273              		.cfi_remember_state
 1274              		.cfi_def_cfa_offset 20
 1275              		@ sp needed
 1276 009e BDE8F040 		pop	{r4, r5, r6, r7, lr}
 1277              	.LCFI36:
 1278              		.cfi_restore 14
 1279              		.cfi_restore 7
 1280              		.cfi_restore 6
 1281              		.cfi_restore 5
 1282              		.cfi_restore 4
 1283              		.cfi_def_cfa_offset 0
 375:/opt/XMClib/XMC_Peripheral_Library_v2.1.16/ThirdPartyLibraries/USBlib/USB/Core/XMC4000/USBController_XMC4000.c **** 		break;
 1284              		.loc 1 375 3 view .LVU369
 1285 00a2 FFF7FEBF 		b	EVENT_USB_Device_Disconnect
 1286              	.LVL60:
 1287              	.L95:
 1288              	.LCFI37:
 1289              		.cfi_restore_state
 347:/opt/XMClib/XMC_Peripheral_Library_v2.1.16/ThirdPartyLibraries/USBlib/USB/Core/XMC4000/USBController_XMC4000.c **** 		device.EP0_State = IDLE;
 1290              		.loc 1 347 3 is_stmt 1 view .LVU370
 348:/opt/XMClib/XMC_Peripheral_Library_v2.1.16/ThirdPartyLibraries/USBlib/USB/Core/XMC4000/USBController_XMC4000.c **** 		device.RemoteWakeUp = 0;
 1291              		.loc 1 348 20 is_stmt 0 view .LVU371
 1292 00a6 274E     		ldr	r6, .L111
 347:/opt/XMClib/XMC_Peripheral_Library_v2.1.16/ThirdPartyLibraries/USBlib/USB/Core/XMC4000/USBController_XMC4000.c **** 		device.EP0_State = IDLE;
 1293              		.loc 1 347 19 view .LVU372
 1294 00a8 274A     		ldr	r2, .L111+4
 349:/opt/XMClib/XMC_Peripheral_Library_v2.1.16/ThirdPartyLibraries/USBlib/USB/Core/XMC4000/USBController_XMC4000.c **** 		/* Reset endpoints and configuration */
 1295              		.loc 1 349 23 view .LVU373
 1296 00aa 96F83E31 		ldrb	r3, [r6, #318]	@ zero_extendqisi2
 348:/opt/XMClib/XMC_Peripheral_Library_v2.1.16/ThirdPartyLibraries/USBlib/USB/Core/XMC4000/USBController_XMC4000.c **** 		device.RemoteWakeUp = 0;
 1297              		.loc 1 348 20 view .LVU374
 1298 00ae 0120     		movs	r0, #1
 1299              	.LVL61:
 349:/opt/XMClib/XMC_Peripheral_Library_v2.1.16/ThirdPartyLibraries/USBlib/USB/Core/XMC4000/USBController_XMC4000.c **** 		/* Reset endpoints and configuration */
 1300              		.loc 1 349 23 view .LVU375
 1301 00b0 6FF38203 		bfc	r3, #2, #1
 347:/opt/XMClib/XMC_Peripheral_Library_v2.1.16/ThirdPartyLibraries/USBlib/USB/Core/XMC4000/USBController_XMC4000.c **** 		device.EP0_State = IDLE;
 1302              		.loc 1 347 19 view .LVU376
 1303 00b4 0221     		movs	r1, #2
 348:/opt/XMClib/XMC_Peripheral_Library_v2.1.16/ThirdPartyLibraries/USBlib/USB/Core/XMC4000/USBController_XMC4000.c **** 		device.RemoteWakeUp = 0;
 1304              		.loc 1 348 20 view .LVU377
 1305 00b6 86F83B01 		strb	r0, [r6, #315]
 349:/opt/XMClib/XMC_Peripheral_Library_v2.1.16/ThirdPartyLibraries/USBlib/USB/Core/XMC4000/USBController_XMC4000.c **** 		/* Reset endpoints and configuration */
 1306              		.loc 1 349 23 view .LVU378
 1307 00ba 86F83E31 		strb	r3, [r6, #318]
 347:/opt/XMClib/XMC_Peripheral_Library_v2.1.16/ThirdPartyLibraries/USBlib/USB/Core/XMC4000/USBController_XMC4000.c **** 		device.EP0_State = IDLE;
 1308              		.loc 1 347 19 view .LVU379
 1309 00be 1170     		strb	r1, [r2]
 348:/opt/XMClib/XMC_Peripheral_Library_v2.1.16/ThirdPartyLibraries/USBlib/USB/Core/XMC4000/USBController_XMC4000.c **** 		device.RemoteWakeUp = 0;
 1310              		.loc 1 348 3 is_stmt 1 view .LVU380
 349:/opt/XMClib/XMC_Peripheral_Library_v2.1.16/ThirdPartyLibraries/USBlib/USB/Core/XMC4000/USBController_XMC4000.c **** 		/* Reset endpoints and configuration */
 1311              		.loc 1 349 3 view .LVU381
 351:/opt/XMClib/XMC_Peripheral_Library_v2.1.16/ThirdPartyLibraries/USBlib/USB/Core/XMC4000/USBController_XMC4000.c **** 			device.Endpoints[i].InInUse = 0;
 1312              		.loc 1 351 3 view .LVU382
 1313              	.LVL62:
 351:/opt/XMClib/XMC_Peripheral_Library_v2.1.16/ThirdPartyLibraries/USBlib/USB/Core/XMC4000/USBController_XMC4000.c **** 			device.Endpoints[i].InInUse = 0;
 1314              		.loc 1 351 12 view .LVU383
 349:/opt/XMClib/XMC_Peripheral_Library_v2.1.16/ThirdPartyLibraries/USBlib/USB/Core/XMC4000/USBController_XMC4000.c **** 		/* Reset endpoints and configuration */
 1315              		.loc 1 349 23 is_stmt 0 view .LVU384
 1316 00c0 0025     		movs	r5, #0
 352:/opt/XMClib/XMC_Peripheral_Library_v2.1.16/ThirdPartyLibraries/USBlib/USB/Core/XMC4000/USBController_XMC4000.c **** 			device.Endpoints[i].OutInUse = 0;
 1317              		.loc 1 352 32 view .LVU385
 1318 00c2 2C27     		movs	r7, #44
 1319 00c4 00E0     		b	.L103
 1320              	.LVL63:
 1321              	.L100:
 352:/opt/XMClib/XMC_Peripheral_Library_v2.1.16/ThirdPartyLibraries/USBlib/USB/Core/XMC4000/USBController_XMC4000.c **** 			device.Endpoints[i].OutInUse = 0;
 1322              		.loc 1 352 32 view .LVU386
 1323 00c6 0135     		adds	r5, r5, #1
 1324              	.L103:
 1325              	.LVL64:
 352:/opt/XMClib/XMC_Peripheral_Library_v2.1.16/ThirdPartyLibraries/USBlib/USB/Core/XMC4000/USBController_XMC4000.c **** 			device.Endpoints[i].OutInUse = 0;
 1326              		.loc 1 352 4 is_stmt 1 view .LVU387
 352:/opt/XMClib/XMC_Peripheral_Library_v2.1.16/ThirdPartyLibraries/USBlib/USB/Core/XMC4000/USBController_XMC4000.c **** 			device.Endpoints[i].OutInUse = 0;
 1327              		.loc 1 352 32 is_stmt 0 view .LVU388
 1328 00c8 07FB0564 		mla	r4, r7, r5, r6
 1329 00cc 2389     		ldrh	r3, [r4, #8]
 1330 00ce 6FF30413 		bfc	r3, #4, #1
 1331 00d2 2381     		strh	r3, [r4, #8]	@ movhi
 353:/opt/XMClib/XMC_Peripheral_Library_v2.1.16/ThirdPartyLibraries/USBlib/USB/Core/XMC4000/USBController_XMC4000.c **** 			device.Endpoints[i].IsHalted = 0;
 1332              		.loc 1 353 4 is_stmt 1 view .LVU389
 353:/opt/XMClib/XMC_Peripheral_Library_v2.1.16/ThirdPartyLibraries/USBlib/USB/Core/XMC4000/USBController_XMC4000.c **** 			device.Endpoints[i].IsHalted = 0;
 1333              		.loc 1 353 33 is_stmt 0 view .LVU390
 1334 00d4 2389     		ldrh	r3, [r4, #8]
 1335 00d6 6FF3C303 		bfc	r3, #3, #1
 1336 00da 2381     		strh	r3, [r4, #8]	@ movhi
 354:/opt/XMClib/XMC_Peripheral_Library_v2.1.16/ThirdPartyLibraries/USBlib/USB/Core/XMC4000/USBController_XMC4000.c **** 			if (i!=0 && device.Endpoints[i].IsConfigured) {
 1337              		.loc 1 354 4 is_stmt 1 view .LVU391
 354:/opt/XMClib/XMC_Peripheral_Library_v2.1.16/ThirdPartyLibraries/USBlib/USB/Core/XMC4000/USBController_XMC4000.c **** 			if (i!=0 && device.Endpoints[i].IsConfigured) {
 1338              		.loc 1 354 33 is_stmt 0 view .LVU392
 1339 00dc 237A     		ldrb	r3, [r4, #8]	@ zero_extendqisi2
 1340 00de 6FF38203 		bfc	r3, #2, #1
 1341 00e2 2372     		strb	r3, [r4, #8]
 355:/opt/XMClib/XMC_Peripheral_Library_v2.1.16/ThirdPartyLibraries/USBlib/USB/Core/XMC4000/USBController_XMC4000.c **** 				device.Driver->EndpointUnconfigure(device.Endpoints[i].Address);
 1342              		.loc 1 355 4 is_stmt 1 view .LVU393
 355:/opt/XMClib/XMC_Peripheral_Library_v2.1.16/ThirdPartyLibraries/USBlib/USB/Core/XMC4000/USBController_XMC4000.c **** 				device.Driver->EndpointUnconfigure(device.Endpoints[i].Address);
 1343              		.loc 1 355 7 is_stmt 0 view .LVU394
 1344 00e4 002D     		cmp	r5, #0
 1345 00e6 EED0     		beq	.L100
 356:/opt/XMClib/XMC_Peripheral_Library_v2.1.16/ThirdPartyLibraries/USBlib/USB/Core/XMC4000/USBController_XMC4000.c **** 				device.Endpoints[i].IsConfigured = 0;
 1346              		.loc 1 356 5 is_stmt 1 discriminator 1 view .LVU395
 355:/opt/XMClib/XMC_Peripheral_Library_v2.1.16/ThirdPartyLibraries/USBlib/USB/Core/XMC4000/USBController_XMC4000.c **** 				device.Driver->EndpointUnconfigure(device.Endpoints[i].Address);
 1347              		.loc 1 355 35 is_stmt 0 discriminator 1 view .LVU396
 1348 00e8 DBB2     		uxtb	r3, r3
 355:/opt/XMClib/XMC_Peripheral_Library_v2.1.16/ThirdPartyLibraries/USBlib/USB/Core/XMC4000/USBController_XMC4000.c **** 				device.Driver->EndpointUnconfigure(device.Endpoints[i].Address);
 1349              		.loc 1 355 13 discriminator 1 view .LVU397
 1350 00ea DB07     		lsls	r3, r3, #31
 1351 00ec 07D5     		bpl	.L101
 356:/opt/XMClib/XMC_Peripheral_Library_v2.1.16/ThirdPartyLibraries/USBlib/USB/Core/XMC4000/USBController_XMC4000.c **** 				device.Endpoints[i].IsConfigured = 0;
 1352              		.loc 1 356 18 view .LVU398
 1353 00ee 3368     		ldr	r3, [r6]
 356:/opt/XMClib/XMC_Peripheral_Library_v2.1.16/ThirdPartyLibraries/USBlib/USB/Core/XMC4000/USBController_XMC4000.c **** 				device.Endpoints[i].IsConfigured = 0;
 1354              		.loc 1 356 5 view .LVU399
 1355 00f0 2079     		ldrb	r0, [r4, #4]	@ zero_extendqisi2
 1356 00f2 1B6A     		ldr	r3, [r3, #32]
 1357 00f4 9847     		blx	r3
 1358              	.LVL65:
 357:/opt/XMClib/XMC_Peripheral_Library_v2.1.16/ThirdPartyLibraries/USBlib/USB/Core/XMC4000/USBController_XMC4000.c **** 				device.Endpoints[i].IsEnabled = 0;
 1359              		.loc 1 357 5 is_stmt 1 view .LVU400
 358:/opt/XMClib/XMC_Peripheral_Library_v2.1.16/ThirdPartyLibraries/USBlib/USB/Core/XMC4000/USBController_XMC4000.c **** 			}
 1360              		.loc 1 358 5 view .LVU401
 357:/opt/XMClib/XMC_Peripheral_Library_v2.1.16/ThirdPartyLibraries/USBlib/USB/Core/XMC4000/USBController_XMC4000.c **** 				device.Endpoints[i].IsEnabled = 0;
 1361              		.loc 1 357 38 is_stmt 0 view .LVU402
 1362 00f6 237A     		ldrb	r3, [r4, #8]	@ zero_extendqisi2
 1363 00f8 23F00303 		bic	r3, r3, #3
 1364 00fc 2372     		strb	r3, [r4, #8]
 1365              	.L101:
 351:/opt/XMClib/XMC_Peripheral_Library_v2.1.16/ThirdPartyLibraries/USBlib/USB/Core/XMC4000/USBController_XMC4000.c **** 			device.Endpoints[i].InInUse = 0;
 1366              		.loc 1 351 41 is_stmt 1 discriminator 2 view .LVU403
 1367              	.LVL66:
 351:/opt/XMClib/XMC_Peripheral_Library_v2.1.16/ThirdPartyLibraries/USBlib/USB/Core/XMC4000/USBController_XMC4000.c **** 			device.Endpoints[i].InInUse = 0;
 1368              		.loc 1 351 12 discriminator 2 view .LVU404
 351:/opt/XMClib/XMC_Peripheral_Library_v2.1.16/ThirdPartyLibraries/USBlib/USB/Core/XMC4000/USBController_XMC4000.c **** 			device.Endpoints[i].InInUse = 0;
 1369              		.loc 1 351 3 is_stmt 0 discriminator 2 view .LVU405
 1370 00fe 062D     		cmp	r5, #6
 1371 0100 E1D1     		bne	.L100
 361:/opt/XMClib/XMC_Peripheral_Library_v2.1.16/ThirdPartyLibraries/USBlib/USB/Core/XMC4000/USBController_XMC4000.c **** 		for (i=0;i<NUM_INTERFACES;i++) {
 1372              		.loc 1 361 3 is_stmt 1 view .LVU406
 362:/opt/XMClib/XMC_Peripheral_Library_v2.1.16/ThirdPartyLibraries/USBlib/USB/Core/XMC4000/USBController_XMC4000.c **** 			device.InterfaceSettings[i] = 0;
 1373              		.loc 1 362 3 view .LVU407
 1374              	.LVL67:
 362:/opt/XMClib/XMC_Peripheral_Library_v2.1.16/ThirdPartyLibraries/USBlib/USB/Core/XMC4000/USBController_XMC4000.c **** 			device.InterfaceSettings[i] = 0;
 1375              		.loc 1 362 12 view .LVU408
 363:/opt/XMClib/XMC_Peripheral_Library_v2.1.16/ThirdPartyLibraries/USBlib/USB/Core/XMC4000/USBController_XMC4000.c **** 		}
 1376              		.loc 1 363 4 view .LVU409
 365:/opt/XMClib/XMC_Peripheral_Library_v2.1.16/ThirdPartyLibraries/USBlib/USB/Core/XMC4000/USBController_XMC4000.c **** 		break;
 1377              		.loc 1 365 16 is_stmt 0 view .LVU410
 1378 0102 3368     		ldr	r3, [r6]
 365:/opt/XMClib/XMC_Peripheral_Library_v2.1.16/ThirdPartyLibraries/USBlib/USB/Core/XMC4000/USBController_XMC4000.c **** 		break;
 1379              		.loc 1 365 3 view .LVU411
 1380 0104 3079     		ldrb	r0, [r6, #4]	@ zero_extendqisi2
 363:/opt/XMClib/XMC_Peripheral_Library_v2.1.16/ThirdPartyLibraries/USBlib/USB/Core/XMC4000/USBController_XMC4000.c **** 		}
 1381              		.loc 1 363 32 view .LVU412
 1382 0106 0022     		movs	r2, #0
 1383 0108 A6F83821 		strh	r2, [r6, #312]	@ movhi
 362:/opt/XMClib/XMC_Peripheral_Library_v2.1.16/ThirdPartyLibraries/USBlib/USB/Core/XMC4000/USBController_XMC4000.c **** 			device.InterfaceSettings[i] = 0;
 1384              		.loc 1 362 29 is_stmt 1 view .LVU413
 1385              	.LVL68:
 362:/opt/XMClib/XMC_Peripheral_Library_v2.1.16/ThirdPartyLibraries/USBlib/USB/Core/XMC4000/USBController_XMC4000.c **** 			device.InterfaceSettings[i] = 0;
 1386              		.loc 1 362 12 view .LVU414
 365:/opt/XMClib/XMC_Peripheral_Library_v2.1.16/ThirdPartyLibraries/USBlib/USB/Core/XMC4000/USBController_XMC4000.c **** 		break;
 1387              		.loc 1 365 3 view .LVU415
 1388 010c 9B6A     		ldr	r3, [r3, #40]
 1389 010e 1821     		movs	r1, #24
 1390              		.loc 1 414 1 is_stmt 0 view .LVU416
 1391 0110 03B0     		add	sp, sp, #12
 1392              	.LCFI38:
 1393              		.cfi_remember_state
 1394              		.cfi_def_cfa_offset 20
 1395              		@ sp needed
 1396 0112 BDE8F040 		pop	{r4, r5, r6, r7, lr}
 1397              	.LCFI39:
 1398              		.cfi_restore 14
 1399              		.cfi_restore 7
 1400              		.cfi_restore 6
 1401              		.cfi_restore 5
 1402              		.cfi_restore 4
 1403              		.cfi_def_cfa_offset 0
 365:/opt/XMClib/XMC_Peripheral_Library_v2.1.16/ThirdPartyLibraries/USBlib/USB/Core/XMC4000/USBController_XMC4000.c **** 		break;
 1404              		.loc 1 365 3 view .LVU417
 1405 0116 1847     		bx	r3
 1406              	.LVL69:
 1407              	.L94:
 1408              	.LCFI40:
 1409              		.cfi_restore_state
 407:/opt/XMClib/XMC_Peripheral_Library_v2.1.16/ThirdPartyLibraries/USBlib/USB/Core/XMC4000/USBController_XMC4000.c **** 		USB_DeviceState = DEVICE_STATE_Suspended;
 1410              		.loc 1 407 3 is_stmt 1 view .LVU418
 407:/opt/XMClib/XMC_Peripheral_Library_v2.1.16/ThirdPartyLibraries/USBlib/USB/Core/XMC4000/USBController_XMC4000.c **** 		USB_DeviceState = DEVICE_STATE_Suspended;
 1411              		.loc 1 407 32 is_stmt 0 view .LVU419
 1412 0118 0B4B     		ldr	r3, .L111+4
 1413 011a 0A4A     		ldr	r2, .L111
 1414 011c 1978     		ldrb	r1, [r3]	@ zero_extendqisi2
 1415 011e 82F83A11 		strb	r1, [r2, #314]
 408:/opt/XMClib/XMC_Peripheral_Library_v2.1.16/ThirdPartyLibraries/USBlib/USB/Core/XMC4000/USBController_XMC4000.c **** 		EVENT_USB_Device_Suspend();
 1416              		.loc 1 408 3 is_stmt 1 view .LVU420
 408:/opt/XMClib/XMC_Peripheral_Library_v2.1.16/ThirdPartyLibraries/USBlib/USB/Core/XMC4000/USBController_XMC4000.c **** 		EVENT_USB_Device_Suspend();
 1417              		.loc 1 408 19 is_stmt 0 view .LVU421
 1418 0122 0522     		movs	r2, #5
 1419 0124 1A70     		strb	r2, [r3]
 409:/opt/XMClib/XMC_Peripheral_Library_v2.1.16/ThirdPartyLibraries/USBlib/USB/Core/XMC4000/USBController_XMC4000.c **** 		break;
 1420              		.loc 1 409 3 is_stmt 1 view .LVU422
 1421              		.loc 1 414 1 is_stmt 0 view .LVU423
 1422 0126 03B0     		add	sp, sp, #12
 1423              	.LCFI41:
 1424              		.cfi_remember_state
 1425              		.cfi_def_cfa_offset 20
 1426              		@ sp needed
 1427 0128 BDE8F040 		pop	{r4, r5, r6, r7, lr}
 1428              	.LCFI42:
 1429              		.cfi_restore 14
 1430              		.cfi_restore 7
 1431              		.cfi_restore 6
 1432              		.cfi_restore 5
 1433              		.cfi_restore 4
 1434              		.cfi_def_cfa_offset 0
 409:/opt/XMClib/XMC_Peripheral_Library_v2.1.16/ThirdPartyLibraries/USBlib/USB/Core/XMC4000/USBController_XMC4000.c **** 		break;
 1435              		.loc 1 409 3 view .LVU424
 1436 012c FFF7FEBF 		b	EVENT_USB_Device_Suspend
 1437              	.LVL70:
 1438              	.L93:
 1439              	.LCFI43:
 1440              		.cfi_restore_state
 403:/opt/XMClib/XMC_Peripheral_Library_v2.1.16/ThirdPartyLibraries/USBlib/USB/Core/XMC4000/USBController_XMC4000.c **** 		EVENT_USB_Device_WakeUp();
 1441              		.loc 1 403 3 is_stmt 1 view .LVU425
 403:/opt/XMClib/XMC_Peripheral_Library_v2.1.16/ThirdPartyLibraries/USBlib/USB/Core/XMC4000/USBController_XMC4000.c **** 		EVENT_USB_Device_WakeUp();
 1442              		.loc 1 403 27 is_stmt 0 view .LVU426
 1443 0130 044A     		ldr	r2, .L111
 403:/opt/XMClib/XMC_Peripheral_Library_v2.1.16/ThirdPartyLibraries/USBlib/USB/Core/XMC4000/USBController_XMC4000.c **** 		EVENT_USB_Device_WakeUp();
 1444              		.loc 1 403 19 view .LVU427
 1445 0132 054B     		ldr	r3, .L111+4
 403:/opt/XMClib/XMC_Peripheral_Library_v2.1.16/ThirdPartyLibraries/USBlib/USB/Core/XMC4000/USBController_XMC4000.c **** 		EVENT_USB_Device_WakeUp();
 1446              		.loc 1 403 27 view .LVU428
 1447 0134 92F83A21 		ldrb	r2, [r2, #314]	@ zero_extendqisi2
 403:/opt/XMClib/XMC_Peripheral_Library_v2.1.16/ThirdPartyLibraries/USBlib/USB/Core/XMC4000/USBController_XMC4000.c **** 		EVENT_USB_Device_WakeUp();
 1448              		.loc 1 403 19 view .LVU429
 1449 0138 1A70     		strb	r2, [r3]
 404:/opt/XMClib/XMC_Peripheral_Library_v2.1.16/ThirdPartyLibraries/USBlib/USB/Core/XMC4000/USBController_XMC4000.c **** 		break;
 1450              		.loc 1 404 3 is_stmt 1 view .LVU430
 1451              		.loc 1 414 1 is_stmt 0 view .LVU431
 1452 013a 03B0     		add	sp, sp, #12
 1453              	.LCFI44:
 1454              		.cfi_def_cfa_offset 20
 1455              		@ sp needed
 1456 013c BDE8F040 		pop	{r4, r5, r6, r7, lr}
 1457              	.LCFI45:
 1458              		.cfi_restore 14
 1459              		.cfi_restore 7
 1460              		.cfi_restore 6
 1461              		.cfi_restore 5
 1462              		.cfi_restore 4
 1463              		.cfi_def_cfa_offset 0
 404:/opt/XMClib/XMC_Peripheral_Library_v2.1.16/ThirdPartyLibraries/USBlib/USB/Core/XMC4000/USBController_XMC4000.c **** 		break;
 1464              		.loc 1 404 3 view .LVU432
 1465 0140 FFF7FEBF 		b	EVENT_USB_Device_WakeUp
 1466              	.LVL71:
 1467              	.L112:
 404:/opt/XMClib/XMC_Peripheral_Library_v2.1.16/ThirdPartyLibraries/USBlib/USB/Core/XMC4000/USBController_XMC4000.c **** 		break;
 1468              		.loc 1 404 3 view .LVU433
 1469              		.align	2
 1470              	.L111:
 1471 0144 00000000 		.word	device
 1472 0148 00000000 		.word	USB_DeviceState
 1473 014c 00000000 		.word	Driver_USBD0
 1474 0150 00000000 		.word	endpoint0_in_buffer
 1475 0154 00000000 		.word	endpoint0_out_buffer
 1476              		.cfi_endproc
 1477              	.LFE193:
 1479              		.section	.text.USBD_SignalEndpointEvent_Handler,"ax",%progbits
 1480              		.align	1
 1481              		.p2align 2,,3
 1482              		.global	USBD_SignalEndpointEvent_Handler
 1483              		.syntax unified
 1484              		.thumb
 1485              		.thumb_func
 1486              		.fpu fpv4-sp-d16
 1488              	USBD_SignalEndpointEvent_Handler:
 1489              	.LVL72:
 1490              	.LFB194:
 415:/opt/XMClib/XMC_Peripheral_Library_v2.1.16/ThirdPartyLibraries/USBlib/USB/Core/XMC4000/USBController_XMC4000.c **** 
 416:/opt/XMClib/XMC_Peripheral_Library_v2.1.16/ThirdPartyLibraries/USBlib/USB/Core/XMC4000/USBController_XMC4000.c **** /**
 417:/opt/XMClib/XMC_Peripheral_Library_v2.1.16/ThirdPartyLibraries/USBlib/USB/Core/XMC4000/USBController_XMC4000.c ****  * \brief Endpoint event handler for the XMC driver
 418:/opt/XMClib/XMC_Peripheral_Library_v2.1.16/ThirdPartyLibraries/USBlib/USB/Core/XMC4000/USBController_XMC4000.c ****  *
 419:/opt/XMClib/XMC_Peripheral_Library_v2.1.16/ThirdPartyLibraries/USBlib/USB/Core/XMC4000/USBController_XMC4000.c ****  * If the driver detects an event (See \ref USB_USBD_EP_EVENT) for a specified endpoint it
 420:/opt/XMClib/XMC_Peripheral_Library_v2.1.16/ThirdPartyLibraries/USBlib/USB/Core/XMC4000/USBController_XMC4000.c ****  * calls this function. Based on the event some further action is taken, e.g. process control
 421:/opt/XMClib/XMC_Peripheral_Library_v2.1.16/ThirdPartyLibraries/USBlib/USB/Core/XMC4000/USBController_XMC4000.c ****  * request or update transfer information and read data from the driver into the core buffer.
 422:/opt/XMClib/XMC_Peripheral_Library_v2.1.16/ThirdPartyLibraries/USBlib/USB/Core/XMC4000/USBController_XMC4000.c ****  *
 423:/opt/XMClib/XMC_Peripheral_Library_v2.1.16/ThirdPartyLibraries/USBlib/USB/Core/XMC4000/USBController_XMC4000.c ****  * \param[in] ep_addr Endpoint address
 424:/opt/XMClib/XMC_Peripheral_Library_v2.1.16/ThirdPartyLibraries/USBlib/USB/Core/XMC4000/USBController_XMC4000.c ****  * \param[in] ep_event Endpoint event type
 425:/opt/XMClib/XMC_Peripheral_Library_v2.1.16/ThirdPartyLibraries/USBlib/USB/Core/XMC4000/USBController_XMC4000.c ****  *
 426:/opt/XMClib/XMC_Peripheral_Library_v2.1.16/ThirdPartyLibraries/USBlib/USB/Core/XMC4000/USBController_XMC4000.c ****  */
 427:/opt/XMClib/XMC_Peripheral_Library_v2.1.16/ThirdPartyLibraries/USBlib/USB/Core/XMC4000/USBController_XMC4000.c **** void USBD_SignalEndpointEvent_Handler (uint8_t ep_addr, XMC_USBD_EP_EVENT_t ep_event) {
 1491              		.loc 1 427 87 is_stmt 1 view -0
 1492              		.cfi_startproc
 1493              		@ args = 0, pretend = 0, frame = 0
 1494              		@ frame_needed = 0, uses_anonymous_args = 0
 428:/opt/XMClib/XMC_Peripheral_Library_v2.1.16/ThirdPartyLibraries/USBlib/USB/Core/XMC4000/USBController_XMC4000.c **** 	USBD_Endpoint_t *ep =  &device.Endpoints[ep_addr & ENDPOINT_EPNUM_MASK];
 1495              		.loc 1 428 2 view .LVU435
 427:/opt/XMClib/XMC_Peripheral_Library_v2.1.16/ThirdPartyLibraries/USBlib/USB/Core/XMC4000/USBController_XMC4000.c **** 	USBD_Endpoint_t *ep =  &device.Endpoints[ep_addr & ENDPOINT_EPNUM_MASK];
 1496              		.loc 1 427 87 is_stmt 0 view .LVU436
 1497 0000 F8B5     		push	{r3, r4, r5, r6, r7, lr}
 1498              	.LCFI46:
 1499              		.cfi_def_cfa_offset 24
 1500              		.cfi_offset 3, -24
 1501              		.cfi_offset 4, -20
 1502              		.cfi_offset 5, -16
 1503              		.cfi_offset 6, -12
 1504              		.cfi_offset 7, -8
 1505              		.cfi_offset 14, -4
 429:/opt/XMClib/XMC_Peripheral_Library_v2.1.16/ThirdPartyLibraries/USBlib/USB/Core/XMC4000/USBController_XMC4000.c **** 	uint8_t temp_num,temp_dir;
 430:/opt/XMClib/XMC_Peripheral_Library_v2.1.16/ThirdPartyLibraries/USBlib/USB/Core/XMC4000/USBController_XMC4000.c **** 	int32_t data_count;
 431:/opt/XMClib/XMC_Peripheral_Library_v2.1.16/ThirdPartyLibraries/USBlib/USB/Core/XMC4000/USBController_XMC4000.c **** 	/* store CurrentEndpoint and direction for restore after handling */
 432:/opt/XMClib/XMC_Peripheral_Library_v2.1.16/ThirdPartyLibraries/USBlib/USB/Core/XMC4000/USBController_XMC4000.c **** 	temp_num = device.CurrentEndpoint;
 1506              		.loc 1 432 11 view .LVU437
 1507 0002 3A4C     		ldr	r4, .L129
 1508 0004 00F00F03 		and	r3, r0, #15
 433:/opt/XMClib/XMC_Peripheral_Library_v2.1.16/ThirdPartyLibraries/USBlib/USB/Core/XMC4000/USBController_XMC4000.c **** 	temp_dir = device.CurrentDirection;
 434:/opt/XMClib/XMC_Peripheral_Library_v2.1.16/ThirdPartyLibraries/USBlib/USB/Core/XMC4000/USBController_XMC4000.c **** 	/* select the given endpoint */
 435:/opt/XMClib/XMC_Peripheral_Library_v2.1.16/ThirdPartyLibraries/USBlib/USB/Core/XMC4000/USBController_XMC4000.c **** 	device.CurrentEndpoint = ep_addr & ENDPOINT_EPNUM_MASK;
 436:/opt/XMClib/XMC_Peripheral_Library_v2.1.16/ThirdPartyLibraries/USBlib/USB/Core/XMC4000/USBController_XMC4000.c **** 	device.CurrentDirection = ep_addr & ENDPOINT_DIR_MASK;
 437:/opt/XMClib/XMC_Peripheral_Library_v2.1.16/ThirdPartyLibraries/USBlib/USB/Core/XMC4000/USBController_XMC4000.c **** 	/* choose what to do based on the event */
 438:/opt/XMClib/XMC_Peripheral_Library_v2.1.16/ThirdPartyLibraries/USBlib/USB/Core/XMC4000/USBController_XMC4000.c **** 	switch (ep_event) {
 1509              		.loc 1 438 2 view .LVU438
 1510 0008 0129     		cmp	r1, #1
 436:/opt/XMClib/XMC_Peripheral_Library_v2.1.16/ThirdPartyLibraries/USBlib/USB/Core/XMC4000/USBController_XMC4000.c **** 	/* choose what to do based on the event */
 1511              		.loc 1 436 36 view .LVU439
 1512 000a 20F07F00 		bic	r0, r0, #127
 1513              	.LVL73:
 432:/opt/XMClib/XMC_Peripheral_Library_v2.1.16/ThirdPartyLibraries/USBlib/USB/Core/XMC4000/USBController_XMC4000.c **** 	temp_dir = device.CurrentDirection;
 1514              		.loc 1 432 11 view .LVU440
 1515 000e B4F83C71 		ldrh	r7, [r4, #316]
 436:/opt/XMClib/XMC_Peripheral_Library_v2.1.16/ThirdPartyLibraries/USBlib/USB/Core/XMC4000/USBController_XMC4000.c **** 	/* choose what to do based on the event */
 1516              		.loc 1 436 26 view .LVU441
 1517 0012 84F83D01 		strb	r0, [r4, #317]
 435:/opt/XMClib/XMC_Peripheral_Library_v2.1.16/ThirdPartyLibraries/USBlib/USB/Core/XMC4000/USBController_XMC4000.c **** 	device.CurrentDirection = ep_addr & ENDPOINT_DIR_MASK;
 1518              		.loc 1 435 25 view .LVU442
 1519 0016 84F83C31 		strb	r3, [r4, #316]
 428:/opt/XMClib/XMC_Peripheral_Library_v2.1.16/ThirdPartyLibraries/USBlib/USB/Core/XMC4000/USBController_XMC4000.c **** 	uint8_t temp_num,temp_dir;
 1520              		.loc 1 428 51 view .LVU443
 1521 001a 1E46     		mov	r6, r3
 1522              	.LVL74:
 429:/opt/XMClib/XMC_Peripheral_Library_v2.1.16/ThirdPartyLibraries/USBlib/USB/Core/XMC4000/USBController_XMC4000.c **** 	int32_t data_count;
 1523              		.loc 1 429 2 is_stmt 1 view .LVU444
 430:/opt/XMClib/XMC_Peripheral_Library_v2.1.16/ThirdPartyLibraries/USBlib/USB/Core/XMC4000/USBController_XMC4000.c **** 	/* store CurrentEndpoint and direction for restore after handling */
 1524              		.loc 1 430 2 view .LVU445
 432:/opt/XMClib/XMC_Peripheral_Library_v2.1.16/ThirdPartyLibraries/USBlib/USB/Core/XMC4000/USBController_XMC4000.c **** 	temp_dir = device.CurrentDirection;
 1525              		.loc 1 432 2 view .LVU446
 433:/opt/XMClib/XMC_Peripheral_Library_v2.1.16/ThirdPartyLibraries/USBlib/USB/Core/XMC4000/USBController_XMC4000.c **** 	/* select the given endpoint */
 1526              		.loc 1 433 2 view .LVU447
 435:/opt/XMClib/XMC_Peripheral_Library_v2.1.16/ThirdPartyLibraries/USBlib/USB/Core/XMC4000/USBController_XMC4000.c **** 	device.CurrentDirection = ep_addr & ENDPOINT_DIR_MASK;
 1527              		.loc 1 435 2 view .LVU448
 436:/opt/XMClib/XMC_Peripheral_Library_v2.1.16/ThirdPartyLibraries/USBlib/USB/Core/XMC4000/USBController_XMC4000.c **** 	/* choose what to do based on the event */
 1528              		.loc 1 436 2 view .LVU449
 1529              		.loc 1 438 2 view .LVU450
 1530 001c 05D0     		beq	.L114
 1531 001e 0229     		cmp	r1, #2
 1532 0020 2ED0     		beq	.L115
 1533 0022 09B3     		cbz	r1, .L127
 1534              	.LVL75:
 1535              	.L116:
 439:/opt/XMClib/XMC_Peripheral_Library_v2.1.16/ThirdPartyLibraries/USBlib/USB/Core/XMC4000/USBController_XMC4000.c **** 	case XMC_USBD_EP_EVENT_SETUP:
 440:/opt/XMClib/XMC_Peripheral_Library_v2.1.16/ThirdPartyLibraries/USBlib/USB/Core/XMC4000/USBController_XMC4000.c **** 		ep->OutInUse = 0;
 441:/opt/XMClib/XMC_Peripheral_Library_v2.1.16/ThirdPartyLibraries/USBlib/USB/Core/XMC4000/USBController_XMC4000.c **** 		switch(device.CurrentEndpoint) {
 442:/opt/XMClib/XMC_Peripheral_Library_v2.1.16/ThirdPartyLibraries/USBlib/USB/Core/XMC4000/USBController_XMC4000.c **** 		case 0:
 443:/opt/XMClib/XMC_Peripheral_Library_v2.1.16/ThirdPartyLibraries/USBlib/USB/Core/XMC4000/USBController_XMC4000.c **** 			USBD_HandleEP0_SETUP();
 444:/opt/XMClib/XMC_Peripheral_Library_v2.1.16/ThirdPartyLibraries/USBlib/USB/Core/XMC4000/USBController_XMC4000.c **** 			break;
 445:/opt/XMClib/XMC_Peripheral_Library_v2.1.16/ThirdPartyLibraries/USBlib/USB/Core/XMC4000/USBController_XMC4000.c **** 		default:
 446:/opt/XMClib/XMC_Peripheral_Library_v2.1.16/ThirdPartyLibraries/USBlib/USB/Core/XMC4000/USBController_XMC4000.c **** 			break;
 447:/opt/XMClib/XMC_Peripheral_Library_v2.1.16/ThirdPartyLibraries/USBlib/USB/Core/XMC4000/USBController_XMC4000.c **** 		}
 448:/opt/XMClib/XMC_Peripheral_Library_v2.1.16/ThirdPartyLibraries/USBlib/USB/Core/XMC4000/USBController_XMC4000.c **** 		break;
 449:/opt/XMClib/XMC_Peripheral_Library_v2.1.16/ThirdPartyLibraries/USBlib/USB/Core/XMC4000/USBController_XMC4000.c **** 	case XMC_USBD_EP_EVENT_OUT:
 450:/opt/XMClib/XMC_Peripheral_Library_v2.1.16/ThirdPartyLibraries/USBlib/USB/Core/XMC4000/USBController_XMC4000.c **** 		ep->IsOutRecieved = 1;
 451:/opt/XMClib/XMC_Peripheral_Library_v2.1.16/ThirdPartyLibraries/USBlib/USB/Core/XMC4000/USBController_XMC4000.c **** 		if (ep->OutBytesAvailable == 0) {
 452:/opt/XMClib/XMC_Peripheral_Library_v2.1.16/ThirdPartyLibraries/USBlib/USB/Core/XMC4000/USBController_XMC4000.c **** 			ep->OutOffset = 0; /* clear offset, new data is there */
 453:/opt/XMClib/XMC_Peripheral_Library_v2.1.16/ThirdPartyLibraries/USBlib/USB/Core/XMC4000/USBController_XMC4000.c **** 			ep->OutBytesAvailable = device.Driver->EndpointRead(ep->Address,ep->OutBuffer,ep->OutBufferLengt
 454:/opt/XMClib/XMC_Peripheral_Library_v2.1.16/ThirdPartyLibraries/USBlib/USB/Core/XMC4000/USBController_XMC4000.c **** 		}
 455:/opt/XMClib/XMC_Peripheral_Library_v2.1.16/ThirdPartyLibraries/USBlib/USB/Core/XMC4000/USBController_XMC4000.c **** 		ep->OutInUse = 0;
 456:/opt/XMClib/XMC_Peripheral_Library_v2.1.16/ThirdPartyLibraries/USBlib/USB/Core/XMC4000/USBController_XMC4000.c **** 		switch(device.CurrentEndpoint) {
 457:/opt/XMClib/XMC_Peripheral_Library_v2.1.16/ThirdPartyLibraries/USBlib/USB/Core/XMC4000/USBController_XMC4000.c **** 		case 0:
 458:/opt/XMClib/XMC_Peripheral_Library_v2.1.16/ThirdPartyLibraries/USBlib/USB/Core/XMC4000/USBController_XMC4000.c **** 			USBD_HandleEP0_OUT();
 459:/opt/XMClib/XMC_Peripheral_Library_v2.1.16/ThirdPartyLibraries/USBlib/USB/Core/XMC4000/USBController_XMC4000.c **** 			break;
 460:/opt/XMClib/XMC_Peripheral_Library_v2.1.16/ThirdPartyLibraries/USBlib/USB/Core/XMC4000/USBController_XMC4000.c **** 		default:
 461:/opt/XMClib/XMC_Peripheral_Library_v2.1.16/ThirdPartyLibraries/USBlib/USB/Core/XMC4000/USBController_XMC4000.c **** 			break;
 462:/opt/XMClib/XMC_Peripheral_Library_v2.1.16/ThirdPartyLibraries/USBlib/USB/Core/XMC4000/USBController_XMC4000.c **** 		}
 463:/opt/XMClib/XMC_Peripheral_Library_v2.1.16/ThirdPartyLibraries/USBlib/USB/Core/XMC4000/USBController_XMC4000.c **** 		break;
 464:/opt/XMClib/XMC_Peripheral_Library_v2.1.16/ThirdPartyLibraries/USBlib/USB/Core/XMC4000/USBController_XMC4000.c **** 	case XMC_USBD_EP_EVENT_IN:
 465:/opt/XMClib/XMC_Peripheral_Library_v2.1.16/ThirdPartyLibraries/USBlib/USB/Core/XMC4000/USBController_XMC4000.c **** 		/* loop write transfers */
 466:/opt/XMClib/XMC_Peripheral_Library_v2.1.16/ThirdPartyLibraries/USBlib/USB/Core/XMC4000/USBController_XMC4000.c **** 		if (ep->InDataLeft> 0) {
 467:/opt/XMClib/XMC_Peripheral_Library_v2.1.16/ThirdPartyLibraries/USBlib/USB/Core/XMC4000/USBController_XMC4000.c **** 			data_count = device.Driver->EndpointWrite(ep->Address,ep->InDataBuffer,ep->InDataLeft);
 468:/opt/XMClib/XMC_Peripheral_Library_v2.1.16/ThirdPartyLibraries/USBlib/USB/Core/XMC4000/USBController_XMC4000.c **** 			ep->InDataLeft -= data_count;
 469:/opt/XMClib/XMC_Peripheral_Library_v2.1.16/ThirdPartyLibraries/USBlib/USB/Core/XMC4000/USBController_XMC4000.c **** 			ep->InDataBuffer+= data_count;
 470:/opt/XMClib/XMC_Peripheral_Library_v2.1.16/ThirdPartyLibraries/USBlib/USB/Core/XMC4000/USBController_XMC4000.c **** 			return;
 471:/opt/XMClib/XMC_Peripheral_Library_v2.1.16/ThirdPartyLibraries/USBlib/USB/Core/XMC4000/USBController_XMC4000.c **** 		} else if (ep->Number == 0 && ep->InBytesAvailable > 0 && ep->InBytesAvailable!=USB_ControlReques
 472:/opt/XMClib/XMC_Peripheral_Library_v2.1.16/ThirdPartyLibraries/USBlib/USB/Core/XMC4000/USBController_XMC4000.c **** 			/* if the amount of data for endpoint 0 is exact the requested amount, then no zlp has to be sen
 473:/opt/XMClib/XMC_Peripheral_Library_v2.1.16/ThirdPartyLibraries/USBlib/USB/Core/XMC4000/USBController_XMC4000.c **** 			device.Driver->EndpointWrite(ep->Address,0,0);
 474:/opt/XMClib/XMC_Peripheral_Library_v2.1.16/ThirdPartyLibraries/USBlib/USB/Core/XMC4000/USBController_XMC4000.c **** 		}
 475:/opt/XMClib/XMC_Peripheral_Library_v2.1.16/ThirdPartyLibraries/USBlib/USB/Core/XMC4000/USBController_XMC4000.c **** 		ep->InBytesAvailable = 0;
 476:/opt/XMClib/XMC_Peripheral_Library_v2.1.16/ThirdPartyLibraries/USBlib/USB/Core/XMC4000/USBController_XMC4000.c **** 		ep->InInUse = 0;
 477:/opt/XMClib/XMC_Peripheral_Library_v2.1.16/ThirdPartyLibraries/USBlib/USB/Core/XMC4000/USBController_XMC4000.c **** 		switch(device.CurrentEndpoint) {
 478:/opt/XMClib/XMC_Peripheral_Library_v2.1.16/ThirdPartyLibraries/USBlib/USB/Core/XMC4000/USBController_XMC4000.c **** 		case 0:
 479:/opt/XMClib/XMC_Peripheral_Library_v2.1.16/ThirdPartyLibraries/USBlib/USB/Core/XMC4000/USBController_XMC4000.c **** 			USBD_HandleEP0_IN();
 480:/opt/XMClib/XMC_Peripheral_Library_v2.1.16/ThirdPartyLibraries/USBlib/USB/Core/XMC4000/USBController_XMC4000.c **** 			break;
 481:/opt/XMClib/XMC_Peripheral_Library_v2.1.16/ThirdPartyLibraries/USBlib/USB/Core/XMC4000/USBController_XMC4000.c **** 		default:
 482:/opt/XMClib/XMC_Peripheral_Library_v2.1.16/ThirdPartyLibraries/USBlib/USB/Core/XMC4000/USBController_XMC4000.c **** 			break;
 483:/opt/XMClib/XMC_Peripheral_Library_v2.1.16/ThirdPartyLibraries/USBlib/USB/Core/XMC4000/USBController_XMC4000.c **** 		}
 484:/opt/XMClib/XMC_Peripheral_Library_v2.1.16/ThirdPartyLibraries/USBlib/USB/Core/XMC4000/USBController_XMC4000.c **** 		break;
 485:/opt/XMClib/XMC_Peripheral_Library_v2.1.16/ThirdPartyLibraries/USBlib/USB/Core/XMC4000/USBController_XMC4000.c **** 	}
 486:/opt/XMClib/XMC_Peripheral_Library_v2.1.16/ThirdPartyLibraries/USBlib/USB/Core/XMC4000/USBController_XMC4000.c **** 	device.CurrentEndpoint = temp_num;
 1536              		.loc 1 486 2 view .LVU451
 487:/opt/XMClib/XMC_Peripheral_Library_v2.1.16/ThirdPartyLibraries/USBlib/USB/Core/XMC4000/USBController_XMC4000.c **** 	device.CurrentDirection = temp_dir;
 1537              		.loc 1 487 2 view .LVU452
 486:/opt/XMClib/XMC_Peripheral_Library_v2.1.16/ThirdPartyLibraries/USBlib/USB/Core/XMC4000/USBController_XMC4000.c **** 	device.CurrentDirection = temp_dir;
 1538              		.loc 1 486 25 is_stmt 0 view .LVU453
 1539 0024 A4F83C71 		strh	r7, [r4, #316]	@ movhi
 488:/opt/XMClib/XMC_Peripheral_Library_v2.1.16/ThirdPartyLibraries/USBlib/USB/Core/XMC4000/USBController_XMC4000.c **** }
 1540              		.loc 1 488 1 view .LVU454
 1541 0028 F8BD     		pop	{r3, r4, r5, r6, r7, pc}
 1542              	.LVL76:
 1543              	.L114:
 450:/opt/XMClib/XMC_Peripheral_Library_v2.1.16/ThirdPartyLibraries/USBlib/USB/Core/XMC4000/USBController_XMC4000.c **** 		if (ep->OutBytesAvailable == 0) {
 1544              		.loc 1 450 3 is_stmt 1 view .LVU455
 450:/opt/XMClib/XMC_Peripheral_Library_v2.1.16/ThirdPartyLibraries/USBlib/USB/Core/XMC4000/USBController_XMC4000.c **** 		if (ep->OutBytesAvailable == 0) {
 1545              		.loc 1 450 21 is_stmt 0 view .LVU456
 1546 002a 2C25     		movs	r5, #44
 1547 002c 05FB0345 		mla	r5, r5, r3, r4
 1548 0030 2A89     		ldrh	r2, [r5, #8]
 451:/opt/XMClib/XMC_Peripheral_Library_v2.1.16/ThirdPartyLibraries/USBlib/USB/Core/XMC4000/USBController_XMC4000.c **** 			ep->OutOffset = 0; /* clear offset, new data is there */
 1549              		.loc 1 451 6 view .LVU457
 1550 0032 E968     		ldr	r1, [r5, #12]
 1551              	.LVL77:
 450:/opt/XMClib/XMC_Peripheral_Library_v2.1.16/ThirdPartyLibraries/USBlib/USB/Core/XMC4000/USBController_XMC4000.c **** 		if (ep->OutBytesAvailable == 0) {
 1552              		.loc 1 450 21 view .LVU458
 1553 0034 42F02002 		orr	r2, r2, #32
 1554 0038 2A81     		strh	r2, [r5, #8]	@ movhi
 451:/opt/XMClib/XMC_Peripheral_Library_v2.1.16/ThirdPartyLibraries/USBlib/USB/Core/XMC4000/USBController_XMC4000.c **** 			ep->OutOffset = 0; /* clear offset, new data is there */
 1555              		.loc 1 451 3 is_stmt 1 view .LVU459
 451:/opt/XMClib/XMC_Peripheral_Library_v2.1.16/ThirdPartyLibraries/USBlib/USB/Core/XMC4000/USBController_XMC4000.c **** 			ep->OutOffset = 0; /* clear offset, new data is there */
 1556              		.loc 1 451 6 is_stmt 0 view .LVU460
 1557 003a 49B9     		cbnz	r1, .L118
 452:/opt/XMClib/XMC_Peripheral_Library_v2.1.16/ThirdPartyLibraries/USBlib/USB/Core/XMC4000/USBController_XMC4000.c **** 			ep->OutBytesAvailable = device.Driver->EndpointRead(ep->Address,ep->OutBuffer,ep->OutBufferLengt
 1558              		.loc 1 452 4 is_stmt 1 view .LVU461
 453:/opt/XMClib/XMC_Peripheral_Library_v2.1.16/ThirdPartyLibraries/USBlib/USB/Core/XMC4000/USBController_XMC4000.c **** 		}
 1559              		.loc 1 453 41 is_stmt 0 view .LVU462
 1560 003c 2368     		ldr	r3, [r4]
 1561              	.LVL78:
 452:/opt/XMClib/XMC_Peripheral_Library_v2.1.16/ThirdPartyLibraries/USBlib/USB/Core/XMC4000/USBController_XMC4000.c **** 			ep->OutBytesAvailable = device.Driver->EndpointRead(ep->Address,ep->OutBuffer,ep->OutBufferLengt
 1562              		.loc 1 452 18 view .LVU463
 1563 003e 2961     		str	r1, [r5, #16]
 453:/opt/XMClib/XMC_Peripheral_Library_v2.1.16/ThirdPartyLibraries/USBlib/USB/Core/XMC4000/USBController_XMC4000.c **** 		}
 1564              		.loc 1 453 4 is_stmt 1 view .LVU464
 453:/opt/XMClib/XMC_Peripheral_Library_v2.1.16/ThirdPartyLibraries/USBlib/USB/Core/XMC4000/USBController_XMC4000.c **** 		}
 1565              		.loc 1 453 28 is_stmt 0 view .LVU465
 1566 0040 DB6A     		ldr	r3, [r3, #44]
 1567 0042 2879     		ldrb	r0, [r5, #4]	@ zero_extendqisi2
 1568 0044 D5E90512 		ldrd	r1, r2, [r5, #20]
 1569 0048 9847     		blx	r3
 1570              	.LVL79:
 1571 004a 94F83C31 		ldrb	r3, [r4, #316]	@ zero_extendqisi2
 453:/opt/XMClib/XMC_Peripheral_Library_v2.1.16/ThirdPartyLibraries/USBlib/USB/Core/XMC4000/USBController_XMC4000.c **** 		}
 1572              		.loc 1 453 26 view .LVU466
 1573 004e E860     		str	r0, [r5, #12]
 1574              	.L118:
 455:/opt/XMClib/XMC_Peripheral_Library_v2.1.16/ThirdPartyLibraries/USBlib/USB/Core/XMC4000/USBController_XMC4000.c **** 		switch(device.CurrentEndpoint) {
 1575              		.loc 1 455 3 is_stmt 1 view .LVU467
 455:/opt/XMClib/XMC_Peripheral_Library_v2.1.16/ThirdPartyLibraries/USBlib/USB/Core/XMC4000/USBController_XMC4000.c **** 		switch(device.CurrentEndpoint) {
 1576              		.loc 1 455 16 is_stmt 0 view .LVU468
 1577 0050 2C22     		movs	r2, #44
 1578 0052 02FB0646 		mla	r6, r2, r6, r4
 1579              	.LVL80:
 455:/opt/XMClib/XMC_Peripheral_Library_v2.1.16/ThirdPartyLibraries/USBlib/USB/Core/XMC4000/USBController_XMC4000.c **** 		switch(device.CurrentEndpoint) {
 1580              		.loc 1 455 16 view .LVU469
 1581 0056 3289     		ldrh	r2, [r6, #8]
 1582 0058 6FF3C302 		bfc	r2, #3, #1
 1583 005c 3281     		strh	r2, [r6, #8]	@ movhi
 456:/opt/XMClib/XMC_Peripheral_Library_v2.1.16/ThirdPartyLibraries/USBlib/USB/Core/XMC4000/USBController_XMC4000.c **** 		case 0:
 1584              		.loc 1 456 3 is_stmt 1 view .LVU470
 1585 005e 002B     		cmp	r3, #0
 1586 0060 E0D1     		bne	.L116
 458:/opt/XMClib/XMC_Peripheral_Library_v2.1.16/ThirdPartyLibraries/USBlib/USB/Core/XMC4000/USBController_XMC4000.c **** 			break;
 1587              		.loc 1 458 4 view .LVU471
 1588 0062 FFF7FEFF 		bl	USBD_HandleEP0_OUT
 1589              	.LVL81:
 459:/opt/XMClib/XMC_Peripheral_Library_v2.1.16/ThirdPartyLibraries/USBlib/USB/Core/XMC4000/USBController_XMC4000.c **** 		default:
 1590              		.loc 1 459 4 view .LVU472
 1591 0066 DDE7     		b	.L116
 1592              	.LVL82:
 1593              	.L127:
 440:/opt/XMClib/XMC_Peripheral_Library_v2.1.16/ThirdPartyLibraries/USBlib/USB/Core/XMC4000/USBController_XMC4000.c **** 		switch(device.CurrentEndpoint) {
 1594              		.loc 1 440 3 view .LVU473
 440:/opt/XMClib/XMC_Peripheral_Library_v2.1.16/ThirdPartyLibraries/USBlib/USB/Core/XMC4000/USBController_XMC4000.c **** 		switch(device.CurrentEndpoint) {
 1595              		.loc 1 440 16 is_stmt 0 view .LVU474
 1596 0068 2C22     		movs	r2, #44
 1597 006a 02FB0342 		mla	r2, r2, r3, r4
 1598 006e 1089     		ldrh	r0, [r2, #8]
 1599 0070 61F3C300 		bfi	r0, r1, #3, #1
 1600              	.LVL83:
 440:/opt/XMClib/XMC_Peripheral_Library_v2.1.16/ThirdPartyLibraries/USBlib/USB/Core/XMC4000/USBController_XMC4000.c **** 		switch(device.CurrentEndpoint) {
 1601              		.loc 1 440 16 view .LVU475
 1602 0074 1081     		strh	r0, [r2, #8]	@ movhi
 441:/opt/XMClib/XMC_Peripheral_Library_v2.1.16/ThirdPartyLibraries/USBlib/USB/Core/XMC4000/USBController_XMC4000.c **** 		case 0:
 1603              		.loc 1 441 3 is_stmt 1 view .LVU476
 1604 0076 002B     		cmp	r3, #0
 1605 0078 D4D1     		bne	.L116
 443:/opt/XMClib/XMC_Peripheral_Library_v2.1.16/ThirdPartyLibraries/USBlib/USB/Core/XMC4000/USBController_XMC4000.c **** 			break;
 1606              		.loc 1 443 4 view .LVU477
 1607 007a FFF7FEFF 		bl	USBD_HandleEP0_SETUP
 1608              	.LVL84:
 444:/opt/XMClib/XMC_Peripheral_Library_v2.1.16/ThirdPartyLibraries/USBlib/USB/Core/XMC4000/USBController_XMC4000.c **** 		default:
 1609              		.loc 1 444 4 view .LVU478
 1610 007e D1E7     		b	.L116
 1611              	.LVL85:
 1612              	.L115:
 466:/opt/XMClib/XMC_Peripheral_Library_v2.1.16/ThirdPartyLibraries/USBlib/USB/Core/XMC4000/USBController_XMC4000.c **** 			data_count = device.Driver->EndpointWrite(ep->Address,ep->InDataBuffer,ep->InDataLeft);
 1613              		.loc 1 466 3 view .LVU479
 466:/opt/XMClib/XMC_Peripheral_Library_v2.1.16/ThirdPartyLibraries/USBlib/USB/Core/XMC4000/USBController_XMC4000.c **** 			data_count = device.Driver->EndpointWrite(ep->Address,ep->InDataBuffer,ep->InDataLeft);
 1614              		.loc 1 466 9 is_stmt 0 view .LVU480
 1615 0080 2C22     		movs	r2, #44
 1616 0082 02FB0345 		mla	r5, r2, r3, r4
 1617 0086 AA6A     		ldr	r2, [r5, #40]
 466:/opt/XMClib/XMC_Peripheral_Library_v2.1.16/ThirdPartyLibraries/USBlib/USB/Core/XMC4000/USBController_XMC4000.c **** 			data_count = device.Driver->EndpointWrite(ep->Address,ep->InDataBuffer,ep->InDataLeft);
 1618              		.loc 1 466 6 view .LVU481
 1619 0088 22BB     		cbnz	r2, .L128
 471:/opt/XMClib/XMC_Peripheral_Library_v2.1.16/ThirdPartyLibraries/USBlib/USB/Core/XMC4000/USBController_XMC4000.c **** 			/* if the amount of data for endpoint 0 is exact the requested amount, then no zlp has to be sen
 1620              		.loc 1 471 10 is_stmt 1 view .LVU482
 471:/opt/XMClib/XMC_Peripheral_Library_v2.1.16/ThirdPartyLibraries/USBlib/USB/Core/XMC4000/USBController_XMC4000.c **** 			/* if the amount of data for endpoint 0 is exact the requested amount, then no zlp has to be sen
 1621              		.loc 1 471 25 is_stmt 0 view .LVU483
 1622 008a 2879     		ldrb	r0, [r5, #4]	@ zero_extendqisi2
 471:/opt/XMClib/XMC_Peripheral_Library_v2.1.16/ThirdPartyLibraries/USBlib/USB/Core/XMC4000/USBController_XMC4000.c **** 			/* if the amount of data for endpoint 0 is exact the requested amount, then no zlp has to be sen
 1623              		.loc 1 471 13 view .LVU484
 1624 008c 0207     		lsls	r2, r0, #28
 1625 008e 13D1     		bne	.L122
 471:/opt/XMClib/XMC_Peripheral_Library_v2.1.16/ThirdPartyLibraries/USBlib/USB/Core/XMC4000/USBController_XMC4000.c **** 			/* if the amount of data for endpoint 0 is exact the requested amount, then no zlp has to be sen
 1626              		.loc 1 471 35 discriminator 1 view .LVU485
 1627 0090 EA69     		ldr	r2, [r5, #28]
 471:/opt/XMClib/XMC_Peripheral_Library_v2.1.16/ThirdPartyLibraries/USBlib/USB/Core/XMC4000/USBController_XMC4000.c **** 			/* if the amount of data for endpoint 0 is exact the requested amount, then no zlp has to be sen
 1628              		.loc 1 471 30 discriminator 1 view .LVU486
 1629 0092 8AB1     		cbz	r2, .L122
 471:/opt/XMClib/XMC_Peripheral_Library_v2.1.16/ThirdPartyLibraries/USBlib/USB/Core/XMC4000/USBController_XMC4000.c **** 			/* if the amount of data for endpoint 0 is exact the requested amount, then no zlp has to be sen
 1630              		.loc 1 471 101 discriminator 2 view .LVU487
 1631 0094 1649     		ldr	r1, .L129+4
 1632              	.LVL86:
 471:/opt/XMClib/XMC_Peripheral_Library_v2.1.16/ThirdPartyLibraries/USBlib/USB/Core/XMC4000/USBController_XMC4000.c **** 			/* if the amount of data for endpoint 0 is exact the requested amount, then no zlp has to be sen
 1633              		.loc 1 471 81 discriminator 2 view .LVU488
 1634 0096 C988     		ldrh	r1, [r1, #6]	@ unaligned
 471:/opt/XMClib/XMC_Peripheral_Library_v2.1.16/ThirdPartyLibraries/USBlib/USB/Core/XMC4000/USBController_XMC4000.c **** 			/* if the amount of data for endpoint 0 is exact the requested amount, then no zlp has to be sen
 1635              		.loc 1 471 58 discriminator 2 view .LVU489
 1636 0098 8A42     		cmp	r2, r1
 1637 009a 0DD0     		beq	.L122
 471:/opt/XMClib/XMC_Peripheral_Library_v2.1.16/ThirdPartyLibraries/USBlib/USB/Core/XMC4000/USBController_XMC4000.c **** 			/* if the amount of data for endpoint 0 is exact the requested amount, then no zlp has to be sen
 1638              		.loc 1 471 138 discriminator 3 view .LVU490
 1639 009c 2989     		ldrh	r1, [r5, #8]
 1640 009e C1F38611 		ubfx	r1, r1, #6, #7
 471:/opt/XMClib/XMC_Peripheral_Library_v2.1.16/ThirdPartyLibraries/USBlib/USB/Core/XMC4000/USBController_XMC4000.c **** 			/* if the amount of data for endpoint 0 is exact the requested amount, then no zlp has to be sen
 1641              		.loc 1 471 134 discriminator 3 view .LVU491
 1642 00a2 B2FBF1F5 		udiv	r5, r2, r1
 1643 00a6 01FB1522 		mls	r2, r1, r5, r2
 471:/opt/XMClib/XMC_Peripheral_Library_v2.1.16/ThirdPartyLibraries/USBlib/USB/Core/XMC4000/USBController_XMC4000.c **** 			/* if the amount of data for endpoint 0 is exact the requested amount, then no zlp has to be sen
 1644              		.loc 1 471 110 discriminator 3 view .LVU492
 1645 00aa 2AB9     		cbnz	r2, .L122
 473:/opt/XMClib/XMC_Peripheral_Library_v2.1.16/ThirdPartyLibraries/USBlib/USB/Core/XMC4000/USBController_XMC4000.c **** 		}
 1646              		.loc 1 473 4 is_stmt 1 view .LVU493
 473:/opt/XMClib/XMC_Peripheral_Library_v2.1.16/ThirdPartyLibraries/USBlib/USB/Core/XMC4000/USBController_XMC4000.c **** 		}
 1647              		.loc 1 473 17 is_stmt 0 view .LVU494
 1648 00ac 2368     		ldr	r3, [r4]
 1649              	.LVL87:
 473:/opt/XMClib/XMC_Peripheral_Library_v2.1.16/ThirdPartyLibraries/USBlib/USB/Core/XMC4000/USBController_XMC4000.c **** 		}
 1650              		.loc 1 473 4 view .LVU495
 1651 00ae 1146     		mov	r1, r2
 1652 00b0 1B6B     		ldr	r3, [r3, #48]
 1653 00b2 9847     		blx	r3
 1654              	.LVL88:
 1655 00b4 94F83C31 		ldrb	r3, [r4, #316]	@ zero_extendqisi2
 1656              	.L122:
 475:/opt/XMClib/XMC_Peripheral_Library_v2.1.16/ThirdPartyLibraries/USBlib/USB/Core/XMC4000/USBController_XMC4000.c **** 		ep->InInUse = 0;
 1657              		.loc 1 475 3 is_stmt 1 view .LVU496
 475:/opt/XMClib/XMC_Peripheral_Library_v2.1.16/ThirdPartyLibraries/USBlib/USB/Core/XMC4000/USBController_XMC4000.c **** 		ep->InInUse = 0;
 1658              		.loc 1 475 24 is_stmt 0 view .LVU497
 1659 00b8 2C22     		movs	r2, #44
 1660 00ba 02FB0646 		mla	r6, r2, r6, r4
 1661              	.LVL89:
 475:/opt/XMClib/XMC_Peripheral_Library_v2.1.16/ThirdPartyLibraries/USBlib/USB/Core/XMC4000/USBController_XMC4000.c **** 		ep->InInUse = 0;
 1662              		.loc 1 475 24 view .LVU498
 1663 00be 0021     		movs	r1, #0
 476:/opt/XMClib/XMC_Peripheral_Library_v2.1.16/ThirdPartyLibraries/USBlib/USB/Core/XMC4000/USBController_XMC4000.c **** 		switch(device.CurrentEndpoint) {
 1664              		.loc 1 476 15 view .LVU499
 1665 00c0 3289     		ldrh	r2, [r6, #8]
 475:/opt/XMClib/XMC_Peripheral_Library_v2.1.16/ThirdPartyLibraries/USBlib/USB/Core/XMC4000/USBController_XMC4000.c **** 		ep->InInUse = 0;
 1666              		.loc 1 475 24 view .LVU500
 1667 00c2 F161     		str	r1, [r6, #28]
 476:/opt/XMClib/XMC_Peripheral_Library_v2.1.16/ThirdPartyLibraries/USBlib/USB/Core/XMC4000/USBController_XMC4000.c **** 		switch(device.CurrentEndpoint) {
 1668              		.loc 1 476 3 is_stmt 1 view .LVU501
 476:/opt/XMClib/XMC_Peripheral_Library_v2.1.16/ThirdPartyLibraries/USBlib/USB/Core/XMC4000/USBController_XMC4000.c **** 		switch(device.CurrentEndpoint) {
 1669              		.loc 1 476 15 is_stmt 0 view .LVU502
 1670 00c4 61F30412 		bfi	r2, r1, #4, #1
 1671 00c8 3281     		strh	r2, [r6, #8]	@ movhi
 477:/opt/XMClib/XMC_Peripheral_Library_v2.1.16/ThirdPartyLibraries/USBlib/USB/Core/XMC4000/USBController_XMC4000.c **** 		case 0:
 1672              		.loc 1 477 3 is_stmt 1 view .LVU503
 1673 00ca 002B     		cmp	r3, #0
 1674 00cc AAD1     		bne	.L116
 479:/opt/XMClib/XMC_Peripheral_Library_v2.1.16/ThirdPartyLibraries/USBlib/USB/Core/XMC4000/USBController_XMC4000.c **** 			break;
 1675              		.loc 1 479 4 view .LVU504
 1676 00ce FFF7FEFF 		bl	USBD_HandleEP0_IN
 1677              	.LVL90:
 480:/opt/XMClib/XMC_Peripheral_Library_v2.1.16/ThirdPartyLibraries/USBlib/USB/Core/XMC4000/USBController_XMC4000.c **** 		default:
 1678              		.loc 1 480 4 view .LVU505
 1679 00d2 A7E7     		b	.L116
 1680              	.LVL91:
 1681              	.L128:
 467:/opt/XMClib/XMC_Peripheral_Library_v2.1.16/ThirdPartyLibraries/USBlib/USB/Core/XMC4000/USBController_XMC4000.c **** 			ep->InDataLeft -= data_count;
 1682              		.loc 1 467 4 view .LVU506
 467:/opt/XMClib/XMC_Peripheral_Library_v2.1.16/ThirdPartyLibraries/USBlib/USB/Core/XMC4000/USBController_XMC4000.c **** 			ep->InDataLeft -= data_count;
 1683              		.loc 1 467 30 is_stmt 0 view .LVU507
 1684 00d4 2368     		ldr	r3, [r4]
 1685              	.LVL92:
 467:/opt/XMClib/XMC_Peripheral_Library_v2.1.16/ThirdPartyLibraries/USBlib/USB/Core/XMC4000/USBController_XMC4000.c **** 			ep->InDataLeft -= data_count;
 1686              		.loc 1 467 17 view .LVU508
 1687 00d6 E96A     		ldr	r1, [r5, #44]
 1688              	.LVL93:
 467:/opt/XMClib/XMC_Peripheral_Library_v2.1.16/ThirdPartyLibraries/USBlib/USB/Core/XMC4000/USBController_XMC4000.c **** 			ep->InDataLeft -= data_count;
 1689              		.loc 1 467 17 view .LVU509
 1690 00d8 1B6B     		ldr	r3, [r3, #48]
 1691 00da 2879     		ldrb	r0, [r5, #4]	@ zero_extendqisi2
 1692 00dc 9847     		blx	r3
 1693              	.LVL94:
 469:/opt/XMClib/XMC_Peripheral_Library_v2.1.16/ThirdPartyLibraries/USBlib/USB/Core/XMC4000/USBController_XMC4000.c **** 			return;
 1694              		.loc 1 469 20 view .LVU510
 1695 00de D5E90A23 		ldrd	r2, r3, [r5, #40]
 1696              	.LVL95:
 468:/opt/XMClib/XMC_Peripheral_Library_v2.1.16/ThirdPartyLibraries/USBlib/USB/Core/XMC4000/USBController_XMC4000.c **** 			ep->InDataBuffer+= data_count;
 1697              		.loc 1 468 4 is_stmt 1 view .LVU511
 468:/opt/XMClib/XMC_Peripheral_Library_v2.1.16/ThirdPartyLibraries/USBlib/USB/Core/XMC4000/USBController_XMC4000.c **** 			ep->InDataBuffer+= data_count;
 1698              		.loc 1 468 19 is_stmt 0 view .LVU512
 1699 00e2 121A     		subs	r2, r2, r0
 469:/opt/XMClib/XMC_Peripheral_Library_v2.1.16/ThirdPartyLibraries/USBlib/USB/Core/XMC4000/USBController_XMC4000.c **** 			return;
 1700              		.loc 1 469 20 view .LVU513
 1701 00e4 1844     		add	r0, r0, r3
 1702              	.LVL96:
 469:/opt/XMClib/XMC_Peripheral_Library_v2.1.16/ThirdPartyLibraries/USBlib/USB/Core/XMC4000/USBController_XMC4000.c **** 			return;
 1703              		.loc 1 469 20 view .LVU514
 1704 00e6 C5E90A20 		strd	r2, r0, [r5, #40]
 470:/opt/XMClib/XMC_Peripheral_Library_v2.1.16/ThirdPartyLibraries/USBlib/USB/Core/XMC4000/USBController_XMC4000.c **** 		} else if (ep->Number == 0 && ep->InBytesAvailable > 0 && ep->InBytesAvailable!=USB_ControlReques
 1705              		.loc 1 470 4 is_stmt 1 view .LVU515
 1706              		.loc 1 488 1 is_stmt 0 view .LVU516
 1707 00ea F8BD     		pop	{r3, r4, r5, r6, r7, pc}
 1708              	.LVL97:
 1709              	.L130:
 1710              		.loc 1 488 1 view .LVU517
 1711              		.align	2
 1712              	.L129:
 1713 00ec 00000000 		.word	device
 1714 00f0 00000000 		.word	USB_ControlRequest
 1715              		.cfi_endproc
 1716              	.LFE194:
 1718              		.section	.text.USBD_Initialize,"ax",%progbits
 1719              		.align	1
 1720              		.p2align 2,,3
 1721              		.global	USBD_Initialize
 1722              		.syntax unified
 1723              		.thumb
 1724              		.thumb_func
 1725              		.fpu fpv4-sp-d16
 1727              	USBD_Initialize:
 1728              	.LVL98:
 1729              	.LFB195:
 489:/opt/XMClib/XMC_Peripheral_Library_v2.1.16/ThirdPartyLibraries/USBlib/USB/Core/XMC4000/USBController_XMC4000.c **** 
 490:/opt/XMClib/XMC_Peripheral_Library_v2.1.16/ThirdPartyLibraries/USBlib/USB/Core/XMC4000/USBController_XMC4000.c **** /**
 491:/opt/XMClib/XMC_Peripheral_Library_v2.1.16/ThirdPartyLibraries/USBlib/USB/Core/XMC4000/USBController_XMC4000.c ****  * \brief Initialize driver core and driver
 492:/opt/XMClib/XMC_Peripheral_Library_v2.1.16/ThirdPartyLibraries/USBlib/USB/Core/XMC4000/USBController_XMC4000.c ****  *
 493:/opt/XMClib/XMC_Peripheral_Library_v2.1.16/ThirdPartyLibraries/USBlib/USB/Core/XMC4000/USBController_XMC4000.c ****  * Intializes the USB driver core data structures and sets it into default state. Afterwards
 494:/opt/XMClib/XMC_Peripheral_Library_v2.1.16/ThirdPartyLibraries/USBlib/USB/Core/XMC4000/USBController_XMC4000.c ****  * it initializes the USB device controller driver and prepare it for connection via \ref USBD_Conn
 495:/opt/XMClib/XMC_Peripheral_Library_v2.1.16/ThirdPartyLibraries/USBlib/USB/Core/XMC4000/USBController_XMC4000.c ****  */
 496:/opt/XMClib/XMC_Peripheral_Library_v2.1.16/ThirdPartyLibraries/USBlib/USB/Core/XMC4000/USBController_XMC4000.c **** int USBD_Initialize(XMC_USBD_t *usb_init) {
 1730              		.loc 1 496 43 is_stmt 1 view -0
 1731              		.cfi_startproc
 1732              		@ args = 0, pretend = 0, frame = 0
 1733              		@ frame_needed = 0, uses_anonymous_args = 0
 497:/opt/XMClib/XMC_Peripheral_Library_v2.1.16/ThirdPartyLibraries/USBlib/USB/Core/XMC4000/USBController_XMC4000.c **** 	int32_t status = 0;
 1734              		.loc 1 497 2 view .LVU519
 498:/opt/XMClib/XMC_Peripheral_Library_v2.1.16/ThirdPartyLibraries/USBlib/USB/Core/XMC4000/USBController_XMC4000.c **** 	memset(&device,0x0,sizeof(USB_Device_t));
 1735              		.loc 1 498 2 view .LVU520
 496:/opt/XMClib/XMC_Peripheral_Library_v2.1.16/ThirdPartyLibraries/USBlib/USB/Core/XMC4000/USBController_XMC4000.c **** 	int32_t status = 0;
 1736              		.loc 1 496 43 is_stmt 0 view .LVU521
 1737 0000 70B5     		push	{r4, r5, r6, lr}
 1738              	.LCFI47:
 1739              		.cfi_def_cfa_offset 16
 1740              		.cfi_offset 4, -16
 1741              		.cfi_offset 5, -12
 1742              		.cfi_offset 6, -8
 1743              		.cfi_offset 14, -4
 1744              		.loc 1 498 2 view .LVU522
 1745 0002 174C     		ldr	r4, .L135
 496:/opt/XMClib/XMC_Peripheral_Library_v2.1.16/ThirdPartyLibraries/USBlib/USB/Core/XMC4000/USBController_XMC4000.c **** 	int32_t status = 0;
 1746              		.loc 1 496 43 view .LVU523
 1747 0004 0546     		mov	r5, r0
 1748              		.loc 1 498 2 view .LVU524
 1749 0006 4FF4A072 		mov	r2, #320
 1750 000a 0021     		movs	r1, #0
 1751 000c 2046     		mov	r0, r4
 1752              	.LVL99:
 1753              		.loc 1 498 2 view .LVU525
 1754 000e FFF7FEFF 		bl	memset
 1755              	.LVL100:
 499:/opt/XMClib/XMC_Peripheral_Library_v2.1.16/ThirdPartyLibraries/USBlib/USB/Core/XMC4000/USBController_XMC4000.c **** 	USB_DeviceState = DEVICE_STATE_Unattached;
 1756              		.loc 1 499 2 is_stmt 1 view .LVU526
 1757              		.loc 1 499 18 is_stmt 0 view .LVU527
 1758 0012 1448     		ldr	r0, .L135+4
 500:/opt/XMClib/XMC_Peripheral_Library_v2.1.16/ThirdPartyLibraries/USBlib/USB/Core/XMC4000/USBController_XMC4000.c **** 	device.Driver = &Driver_USBD0;
 1759              		.loc 1 500 16 view .LVU528
 1760 0014 144A     		ldr	r2, .L135+8
 1761 0016 2260     		str	r2, [r4]
 499:/opt/XMClib/XMC_Peripheral_Library_v2.1.16/ThirdPartyLibraries/USBlib/USB/Core/XMC4000/USBController_XMC4000.c **** 	USB_DeviceState = DEVICE_STATE_Unattached;
 1762              		.loc 1 499 18 view .LVU529
 1763 0018 0023     		movs	r3, #0
 501:/opt/XMClib/XMC_Peripheral_Library_v2.1.16/ThirdPartyLibraries/USBlib/USB/Core/XMC4000/USBController_XMC4000.c **** 	device.EP0_State = IDLE;
 502:/opt/XMClib/XMC_Peripheral_Library_v2.1.16/ThirdPartyLibraries/USBlib/USB/Core/XMC4000/USBController_XMC4000.c **** 	device.Endpoints[0].InBuffer = endpoint0_in_buffer;
 503:/opt/XMClib/XMC_Peripheral_Library_v2.1.16/ThirdPartyLibraries/USBlib/USB/Core/XMC4000/USBController_XMC4000.c **** 	device.Endpoints[0].InBufferLength = 256;
 504:/opt/XMClib/XMC_Peripheral_Library_v2.1.16/ThirdPartyLibraries/USBlib/USB/Core/XMC4000/USBController_XMC4000.c **** 	device.Endpoints[0].OutBuffer = endpoint0_out_buffer;
 505:/opt/XMClib/XMC_Peripheral_Library_v2.1.16/ThirdPartyLibraries/USBlib/USB/Core/XMC4000/USBController_XMC4000.c **** 	device.Endpoints[0].OutBufferLength = 256;
 506:/opt/XMClib/XMC_Peripheral_Library_v2.1.16/ThirdPartyLibraries/USBlib/USB/Core/XMC4000/USBController_XMC4000.c **** 	device.Endpoints[0].Direction = 0;
 1764              		.loc 1 506 32 view .LVU530
 1765 001a 4FF00001 		mov	r1, #0
 499:/opt/XMClib/XMC_Peripheral_Library_v2.1.16/ThirdPartyLibraries/USBlib/USB/Core/XMC4000/USBController_XMC4000.c **** 	device.Driver = &Driver_USBD0;
 1766              		.loc 1 499 18 view .LVU531
 1767 001e 0370     		strb	r3, [r0]
 500:/opt/XMClib/XMC_Peripheral_Library_v2.1.16/ThirdPartyLibraries/USBlib/USB/Core/XMC4000/USBController_XMC4000.c **** 	device.Driver = &Driver_USBD0;
 1768              		.loc 1 500 2 is_stmt 1 view .LVU532
 501:/opt/XMClib/XMC_Peripheral_Library_v2.1.16/ThirdPartyLibraries/USBlib/USB/Core/XMC4000/USBController_XMC4000.c **** 	device.EP0_State = IDLE;
 1769              		.loc 1 501 2 view .LVU533
 502:/opt/XMClib/XMC_Peripheral_Library_v2.1.16/ThirdPartyLibraries/USBlib/USB/Core/XMC4000/USBController_XMC4000.c **** 	device.Endpoints[0].InBufferLength = 256;
 1770              		.loc 1 502 2 view .LVU534
 503:/opt/XMClib/XMC_Peripheral_Library_v2.1.16/ThirdPartyLibraries/USBlib/USB/Core/XMC4000/USBController_XMC4000.c **** 	device.Endpoints[0].OutBuffer = endpoint0_out_buffer;
 1771              		.loc 1 503 2 view .LVU535
 501:/opt/XMClib/XMC_Peripheral_Library_v2.1.16/ThirdPartyLibraries/USBlib/USB/Core/XMC4000/USBController_XMC4000.c **** 	device.Endpoints[0].InBuffer = endpoint0_in_buffer;
 1772              		.loc 1 501 19 is_stmt 0 view .LVU536
 1773 0020 0126     		movs	r6, #1
 1774              		.loc 1 506 32 view .LVU537
 1775 0022 63F3C711 		bfi	r1, r3, #7, #1
 504:/opt/XMClib/XMC_Peripheral_Library_v2.1.16/ThirdPartyLibraries/USBlib/USB/Core/XMC4000/USBController_XMC4000.c **** 	device.Endpoints[0].OutBufferLength = 256;
 1776              		.loc 1 504 32 view .LVU538
 1777 0026 114B     		ldr	r3, .L135+12
 502:/opt/XMClib/XMC_Peripheral_Library_v2.1.16/ThirdPartyLibraries/USBlib/USB/Core/XMC4000/USBController_XMC4000.c **** 	device.Endpoints[0].InBufferLength = 256;
 1778              		.loc 1 502 31 view .LVU539
 1779 0028 1148     		ldr	r0, .L135+16
 501:/opt/XMClib/XMC_Peripheral_Library_v2.1.16/ThirdPartyLibraries/USBlib/USB/Core/XMC4000/USBController_XMC4000.c **** 	device.Endpoints[0].InBuffer = endpoint0_in_buffer;
 1780              		.loc 1 501 19 view .LVU540
 1781 002a 84F83B61 		strb	r6, [r4, #315]
 504:/opt/XMClib/XMC_Peripheral_Library_v2.1.16/ThirdPartyLibraries/USBlib/USB/Core/XMC4000/USBController_XMC4000.c **** 	device.Endpoints[0].OutBufferLength = 256;
 1782              		.loc 1 504 32 view .LVU541
 1783 002e 6361     		str	r3, [r4, #20]
 507:/opt/XMClib/XMC_Peripheral_Library_v2.1.16/ThirdPartyLibraries/USBlib/USB/Core/XMC4000/USBController_XMC4000.c **** 	device.Endpoints[0].IsConfigured = 1;
 1784              		.loc 1 507 35 view .LVU542
 1785 0030 41F20306 		movw	r6, #4099
 503:/opt/XMClib/XMC_Peripheral_Library_v2.1.16/ThirdPartyLibraries/USBlib/USB/Core/XMC4000/USBController_XMC4000.c **** 	device.Endpoints[0].OutBuffer = endpoint0_out_buffer;
 1786              		.loc 1 503 37 view .LVU543
 1787 0034 4FF48073 		mov	r3, #256
 502:/opt/XMClib/XMC_Peripheral_Library_v2.1.16/ThirdPartyLibraries/USBlib/USB/Core/XMC4000/USBController_XMC4000.c **** 	device.Endpoints[0].InBufferLength = 256;
 1788              		.loc 1 502 31 view .LVU544
 1789 0038 2062     		str	r0, [r4, #32]
 508:/opt/XMClib/XMC_Peripheral_Library_v2.1.16/ThirdPartyLibraries/USBlib/USB/Core/XMC4000/USBController_XMC4000.c **** 	device.Endpoints[0].IsEnabled = 1;
 509:/opt/XMClib/XMC_Peripheral_Library_v2.1.16/ThirdPartyLibraries/USBlib/USB/Core/XMC4000/USBController_XMC4000.c **** 	device.Endpoints[0].MaxPacketSize = 64;
 510:/opt/XMClib/XMC_Peripheral_Library_v2.1.16/ThirdPartyLibraries/USBlib/USB/Core/XMC4000/USBController_XMC4000.c **** 
 511:/opt/XMClib/XMC_Peripheral_Library_v2.1.16/ThirdPartyLibraries/USBlib/USB/Core/XMC4000/USBController_XMC4000.c **** 	/* First initalize the device */
 512:/opt/XMClib/XMC_Peripheral_Library_v2.1.16/ThirdPartyLibraries/USBlib/USB/Core/XMC4000/USBController_XMC4000.c **** 	status = device.Driver->Initialize(usb_init);
 1790              		.loc 1 512 11 view .LVU545
 1791 003a 5268     		ldr	r2, [r2, #4]
 506:/opt/XMClib/XMC_Peripheral_Library_v2.1.16/ThirdPartyLibraries/USBlib/USB/Core/XMC4000/USBController_XMC4000.c **** 	device.Endpoints[0].IsConfigured = 1;
 1792              		.loc 1 506 32 view .LVU546
 1793 003c 2171     		strb	r1, [r4, #4]
 1794              		.loc 1 512 11 view .LVU547
 1795 003e 2846     		mov	r0, r5
 507:/opt/XMClib/XMC_Peripheral_Library_v2.1.16/ThirdPartyLibraries/USBlib/USB/Core/XMC4000/USBController_XMC4000.c **** 	device.Endpoints[0].IsEnabled = 1;
 1796              		.loc 1 507 35 view .LVU548
 1797 0040 2681     		strh	r6, [r4, #8]	@ movhi
 503:/opt/XMClib/XMC_Peripheral_Library_v2.1.16/ThirdPartyLibraries/USBlib/USB/Core/XMC4000/USBController_XMC4000.c **** 	device.Endpoints[0].OutBuffer = endpoint0_out_buffer;
 1798              		.loc 1 503 37 view .LVU549
 1799 0042 6362     		str	r3, [r4, #36]
 504:/opt/XMClib/XMC_Peripheral_Library_v2.1.16/ThirdPartyLibraries/USBlib/USB/Core/XMC4000/USBController_XMC4000.c **** 	device.Endpoints[0].OutBufferLength = 256;
 1800              		.loc 1 504 2 is_stmt 1 view .LVU550
 505:/opt/XMClib/XMC_Peripheral_Library_v2.1.16/ThirdPartyLibraries/USBlib/USB/Core/XMC4000/USBController_XMC4000.c **** 	device.Endpoints[0].Direction = 0;
 1801              		.loc 1 505 2 view .LVU551
 505:/opt/XMClib/XMC_Peripheral_Library_v2.1.16/ThirdPartyLibraries/USBlib/USB/Core/XMC4000/USBController_XMC4000.c **** 	device.Endpoints[0].Direction = 0;
 1802              		.loc 1 505 38 is_stmt 0 view .LVU552
 1803 0044 A361     		str	r3, [r4, #24]
 506:/opt/XMClib/XMC_Peripheral_Library_v2.1.16/ThirdPartyLibraries/USBlib/USB/Core/XMC4000/USBController_XMC4000.c **** 	device.Endpoints[0].IsConfigured = 1;
 1804              		.loc 1 506 2 is_stmt 1 view .LVU553
 507:/opt/XMClib/XMC_Peripheral_Library_v2.1.16/ThirdPartyLibraries/USBlib/USB/Core/XMC4000/USBController_XMC4000.c **** 	device.Endpoints[0].IsEnabled = 1;
 1805              		.loc 1 507 2 view .LVU554
 508:/opt/XMClib/XMC_Peripheral_Library_v2.1.16/ThirdPartyLibraries/USBlib/USB/Core/XMC4000/USBController_XMC4000.c **** 	device.Endpoints[0].MaxPacketSize = 64;
 1806              		.loc 1 508 2 view .LVU555
 509:/opt/XMClib/XMC_Peripheral_Library_v2.1.16/ThirdPartyLibraries/USBlib/USB/Core/XMC4000/USBController_XMC4000.c **** 
 1807              		.loc 1 509 2 view .LVU556
 1808              		.loc 1 512 2 view .LVU557
 1809              		.loc 1 512 11 is_stmt 0 view .LVU558
 1810 0046 9047     		blx	r2
 1811              	.LVL101:
 513:/opt/XMClib/XMC_Peripheral_Library_v2.1.16/ThirdPartyLibraries/USBlib/USB/Core/XMC4000/USBController_XMC4000.c **** 	if (status != XMC_USBD_STATUS_OK)
 1812              		.loc 1 513 2 is_stmt 1 view .LVU559
 1813              		.loc 1 513 5 is_stmt 0 view .LVU560
 1814 0048 38B9     		cbnz	r0, .L133
 514:/opt/XMClib/XMC_Peripheral_Library_v2.1.16/ThirdPartyLibraries/USBlib/USB/Core/XMC4000/USBController_XMC4000.c **** 		return -1;
 515:/opt/XMClib/XMC_Peripheral_Library_v2.1.16/ThirdPartyLibraries/USBlib/USB/Core/XMC4000/USBController_XMC4000.c **** 
 516:/opt/XMClib/XMC_Peripheral_Library_v2.1.16/ThirdPartyLibraries/USBlib/USB/Core/XMC4000/USBController_XMC4000.c **** 	/* then configure endpoint 0 */
 517:/opt/XMClib/XMC_Peripheral_Library_v2.1.16/ThirdPartyLibraries/USBlib/USB/Core/XMC4000/USBController_XMC4000.c **** 	device.Driver->EndpointConfigure(0,XMC_USBD_ENDPOINT_TYPE_CONTROL,
 1815              		.loc 1 517 15 view .LVU561
 1816 004a 2368     		ldr	r3, [r4]
 1817 004c 0546     		mov	r5, r0
 1818              	.LVL102:
 1819              		.loc 1 517 2 is_stmt 1 view .LVU562
 1820 004e DB69     		ldr	r3, [r3, #28]
 1821 0050 4022     		movs	r2, #64
 1822 0052 0146     		mov	r1, r0
 1823 0054 9847     		blx	r3
 1824              	.LVL103:
 518:/opt/XMClib/XMC_Peripheral_Library_v2.1.16/ThirdPartyLibraries/USBlib/USB/Core/XMC4000/USBController_XMC4000.c **** 			(uint8_t)XMC_USBD_MAX_PACKET_SIZE);
 519:/opt/XMClib/XMC_Peripheral_Library_v2.1.16/ThirdPartyLibraries/USBlib/USB/Core/XMC4000/USBController_XMC4000.c **** 	if (status != XMC_USBD_STATUS_OK) {
 1825              		.loc 1 519 2 view .LVU563
 520:/opt/XMClib/XMC_Peripheral_Library_v2.1.16/ThirdPartyLibraries/USBlib/USB/Core/XMC4000/USBController_XMC4000.c **** 		device.Driver->Uninitialize();
 521:/opt/XMClib/XMC_Peripheral_Library_v2.1.16/ThirdPartyLibraries/USBlib/USB/Core/XMC4000/USBController_XMC4000.c **** 		return -1;
 522:/opt/XMClib/XMC_Peripheral_Library_v2.1.16/ThirdPartyLibraries/USBlib/USB/Core/XMC4000/USBController_XMC4000.c **** 	}
 523:/opt/XMClib/XMC_Peripheral_Library_v2.1.16/ThirdPartyLibraries/USBlib/USB/Core/XMC4000/USBController_XMC4000.c **** 
 524:/opt/XMClib/XMC_Peripheral_Library_v2.1.16/ThirdPartyLibraries/USBlib/USB/Core/XMC4000/USBController_XMC4000.c **** 	return 0;
 1826              		.loc 1 524 9 is_stmt 0 view .LVU564
 1827 0056 2846     		mov	r0, r5
 525:/opt/XMClib/XMC_Peripheral_Library_v2.1.16/ThirdPartyLibraries/USBlib/USB/Core/XMC4000/USBController_XMC4000.c **** }
 1828              		.loc 1 525 1 view .LVU565
 1829 0058 70BD     		pop	{r4, r5, r6, pc}
 1830              	.LVL104:
 1831              	.L133:
 514:/opt/XMClib/XMC_Peripheral_Library_v2.1.16/ThirdPartyLibraries/USBlib/USB/Core/XMC4000/USBController_XMC4000.c **** 
 1832              		.loc 1 514 10 view .LVU566
 1833 005a 4FF0FF30 		mov	r0, #-1
 1834              	.LVL105:
 1835              		.loc 1 525 1 view .LVU567
 1836 005e 70BD     		pop	{r4, r5, r6, pc}
 1837              	.LVL106:
 1838              	.L136:
 1839              		.loc 1 525 1 view .LVU568
 1840              		.align	2
 1841              	.L135:
 1842 0060 00000000 		.word	device
 1843 0064 00000000 		.word	USB_DeviceState
 1844 0068 00000000 		.word	Driver_USBD0
 1845 006c 00000000 		.word	endpoint0_out_buffer
 1846 0070 00000000 		.word	endpoint0_in_buffer
 1847              		.cfi_endproc
 1848              	.LFE195:
 1850              		.section	.text.USB_IsEnumDone,"ax",%progbits
 1851              		.align	1
 1852              		.p2align 2,,3
 1853              		.global	USB_IsEnumDone
 1854              		.syntax unified
 1855              		.thumb
 1856              		.thumb_func
 1857              		.fpu fpv4-sp-d16
 1859              	USB_IsEnumDone:
 1860              	.LFB196:
 526:/opt/XMClib/XMC_Peripheral_Library_v2.1.16/ThirdPartyLibraries/USBlib/USB/Core/XMC4000/USBController_XMC4000.c **** 
 527:/opt/XMClib/XMC_Peripheral_Library_v2.1.16/ThirdPartyLibraries/USBlib/USB/Core/XMC4000/USBController_XMC4000.c **** /**
 528:/opt/XMClib/XMC_Peripheral_Library_v2.1.16/ThirdPartyLibraries/USBlib/USB/Core/XMC4000/USBController_XMC4000.c ****  * \brief Is the enumeration finished?
 529:/opt/XMClib/XMC_Peripheral_Library_v2.1.16/ThirdPartyLibraries/USBlib/USB/Core/XMC4000/USBController_XMC4000.c ****  *
 530:/opt/XMClib/XMC_Peripheral_Library_v2.1.16/ThirdPartyLibraries/USBlib/USB/Core/XMC4000/USBController_XMC4000.c ****  * Tell the USB device controller driver if the enumeration interrupt have been reached
 531:/opt/XMClib/XMC_Peripheral_Library_v2.1.16/ThirdPartyLibraries/USBlib/USB/Core/XMC4000/USBController_XMC4000.c ****  */
 532:/opt/XMClib/XMC_Peripheral_Library_v2.1.16/ThirdPartyLibraries/USBlib/USB/Core/XMC4000/USBController_XMC4000.c **** int USB_IsEnumDone(void){
 1861              		.loc 1 532 25 is_stmt 1 view -0
 1862              		.cfi_startproc
 1863              		@ args = 0, pretend = 0, frame = 0
 1864              		@ frame_needed = 0, uses_anonymous_args = 0
 533:/opt/XMClib/XMC_Peripheral_Library_v2.1.16/ThirdPartyLibraries/USBlib/USB/Core/XMC4000/USBController_XMC4000.c **** 	if (device.Driver->IsEnumDone())
 1865              		.loc 1 533 2 view .LVU570
 532:/opt/XMClib/XMC_Peripheral_Library_v2.1.16/ThirdPartyLibraries/USBlib/USB/Core/XMC4000/USBController_XMC4000.c **** 	if (device.Driver->IsEnumDone())
 1866              		.loc 1 532 25 is_stmt 0 view .LVU571
 1867 0000 08B5     		push	{r3, lr}
 1868              	.LCFI48:
 1869              		.cfi_def_cfa_offset 8
 1870              		.cfi_offset 3, -8
 1871              		.cfi_offset 14, -4
 1872              		.loc 1 533 12 view .LVU572
 1873 0002 044B     		ldr	r3, .L139
 1874              		.loc 1 533 19 view .LVU573
 1875 0004 1B68     		ldr	r3, [r3]
 1876              		.loc 1 533 6 view .LVU574
 1877 0006 DB6B     		ldr	r3, [r3, #60]
 1878 0008 9847     		blx	r3
 1879              	.LVL107:
 534:/opt/XMClib/XMC_Peripheral_Library_v2.1.16/ThirdPartyLibraries/USBlib/USB/Core/XMC4000/USBController_XMC4000.c **** 		return 1;
 535:/opt/XMClib/XMC_Peripheral_Library_v2.1.16/ThirdPartyLibraries/USBlib/USB/Core/XMC4000/USBController_XMC4000.c **** 	else
 536:/opt/XMClib/XMC_Peripheral_Library_v2.1.16/ThirdPartyLibraries/USBlib/USB/Core/XMC4000/USBController_XMC4000.c **** 		return 0;
 537:/opt/XMClib/XMC_Peripheral_Library_v2.1.16/ThirdPartyLibraries/USBlib/USB/Core/XMC4000/USBController_XMC4000.c ****  }
 1880              		.loc 1 537 2 view .LVU575
 1881 000a 0038     		subs	r0, r0, #0
 1882 000c 18BF     		it	ne
 1883 000e 0120     		movne	r0, #1
 1884 0010 08BD     		pop	{r3, pc}
 1885              	.L140:
 1886 0012 00BF     		.align	2
 1887              	.L139:
 1888 0014 00000000 		.word	device
 1889              		.cfi_endproc
 1890              	.LFE196:
 1892              		.section	.text.USBD_SetEndpointBuffer,"ax",%progbits
 1893              		.align	1
 1894              		.p2align 2,,3
 1895              		.global	USBD_SetEndpointBuffer
 1896              		.syntax unified
 1897              		.thumb
 1898              		.thumb_func
 1899              		.fpu fpv4-sp-d16
 1901              	USBD_SetEndpointBuffer:
 1902              	.LVL108:
 1903              	.LFB197:
 538:/opt/XMClib/XMC_Peripheral_Library_v2.1.16/ThirdPartyLibraries/USBlib/USB/Core/XMC4000/USBController_XMC4000.c **** 
 539:/opt/XMClib/XMC_Peripheral_Library_v2.1.16/ThirdPartyLibraries/USBlib/USB/Core/XMC4000/USBController_XMC4000.c **** 
 540:/opt/XMClib/XMC_Peripheral_Library_v2.1.16/ThirdPartyLibraries/USBlib/USB/Core/XMC4000/USBController_XMC4000.c **** /**
 541:/opt/XMClib/XMC_Peripheral_Library_v2.1.16/ThirdPartyLibraries/USBlib/USB/Core/XMC4000/USBController_XMC4000.c ****  * \brief Set the buffer for an endpoint
 542:/opt/XMClib/XMC_Peripheral_Library_v2.1.16/ThirdPartyLibraries/USBlib/USB/Core/XMC4000/USBController_XMC4000.c ****  *
 543:/opt/XMClib/XMC_Peripheral_Library_v2.1.16/ThirdPartyLibraries/USBlib/USB/Core/XMC4000/USBController_XMC4000.c ****  * The user has to ensure the an endpoint has a valid buffer set
 544:/opt/XMClib/XMC_Peripheral_Library_v2.1.16/ThirdPartyLibraries/USBlib/USB/Core/XMC4000/USBController_XMC4000.c ****  * in order to ensure proper work.
 545:/opt/XMClib/XMC_Peripheral_Library_v2.1.16/ThirdPartyLibraries/USBlib/USB/Core/XMC4000/USBController_XMC4000.c ****  *
 546:/opt/XMClib/XMC_Peripheral_Library_v2.1.16/ThirdPartyLibraries/USBlib/USB/Core/XMC4000/USBController_XMC4000.c ****  * \param[in] addr Endpoint address
 547:/opt/XMClib/XMC_Peripheral_Library_v2.1.16/ThirdPartyLibraries/USBlib/USB/Core/XMC4000/USBController_XMC4000.c ****  * \param[in] buf Buffer pointer
 548:/opt/XMClib/XMC_Peripheral_Library_v2.1.16/ThirdPartyLibraries/USBlib/USB/Core/XMC4000/USBController_XMC4000.c ****  * \param[in] len Buffer length
 549:/opt/XMClib/XMC_Peripheral_Library_v2.1.16/ThirdPartyLibraries/USBlib/USB/Core/XMC4000/USBController_XMC4000.c ****  */
 550:/opt/XMClib/XMC_Peripheral_Library_v2.1.16/ThirdPartyLibraries/USBlib/USB/Core/XMC4000/USBController_XMC4000.c **** void USBD_SetEndpointBuffer(uint8_t addr,uint8_t *buf,uint16_t len) {
 1904              		.loc 1 550 69 is_stmt 1 view -0
 1905              		.cfi_startproc
 1906              		@ args = 0, pretend = 0, frame = 0
 1907              		@ frame_needed = 0, uses_anonymous_args = 0
 1908              		@ link register save eliminated.
 551:/opt/XMClib/XMC_Peripheral_Library_v2.1.16/ThirdPartyLibraries/USBlib/USB/Core/XMC4000/USBController_XMC4000.c **** 	uint8_t number  = addr & ENDPOINT_EPNUM_MASK;
 1909              		.loc 1 551 2 view .LVU577
 552:/opt/XMClib/XMC_Peripheral_Library_v2.1.16/ThirdPartyLibraries/USBlib/USB/Core/XMC4000/USBController_XMC4000.c **** 	if (addr & ENDPOINT_DIR_MASK) {
 1910              		.loc 1 552 5 is_stmt 0 view .LVU578
 1911 0000 10F0800F 		tst	r0, #128
 551:/opt/XMClib/XMC_Peripheral_Library_v2.1.16/ThirdPartyLibraries/USBlib/USB/Core/XMC4000/USBController_XMC4000.c **** 	uint8_t number  = addr & ENDPOINT_EPNUM_MASK;
 1912              		.loc 1 551 10 view .LVU579
 1913 0004 00F00F03 		and	r3, r0, #15
 1914              	.LVL109:
 1915              		.loc 1 552 2 is_stmt 1 view .LVU580
 553:/opt/XMClib/XMC_Peripheral_Library_v2.1.16/ThirdPartyLibraries/USBlib/USB/Core/XMC4000/USBController_XMC4000.c **** 		device.Endpoints[number].InBuffer = buf;
 1916              		.loc 1 553 3 view .LVU581
 554:/opt/XMClib/XMC_Peripheral_Library_v2.1.16/ThirdPartyLibraries/USBlib/USB/Core/XMC4000/USBController_XMC4000.c **** 		device.Endpoints[number].InBufferLength = len;
 555:/opt/XMClib/XMC_Peripheral_Library_v2.1.16/ThirdPartyLibraries/USBlib/USB/Core/XMC4000/USBController_XMC4000.c **** 	} else {
 556:/opt/XMClib/XMC_Peripheral_Library_v2.1.16/ThirdPartyLibraries/USBlib/USB/Core/XMC4000/USBController_XMC4000.c **** 		device.Endpoints[number].OutBuffer = buf;
 1917              		.loc 1 556 3 view .LVU582
 553:/opt/XMClib/XMC_Peripheral_Library_v2.1.16/ThirdPartyLibraries/USBlib/USB/Core/XMC4000/USBController_XMC4000.c **** 		device.Endpoints[number].InBuffer = buf;
 1918              		.loc 1 553 37 is_stmt 0 view .LVU583
 1919 0008 0648     		ldr	r0, .L145
 1920              	.LVL110:
 550:/opt/XMClib/XMC_Peripheral_Library_v2.1.16/ThirdPartyLibraries/USBlib/USB/Core/XMC4000/USBController_XMC4000.c **** 	uint8_t number  = addr & ENDPOINT_EPNUM_MASK;
 1921              		.loc 1 550 69 view .LVU584
 1922 000a 10B4     		push	{r4}
 1923              	.LCFI49:
 1924              		.cfi_def_cfa_offset 4
 1925              		.cfi_offset 4, -4
 553:/opt/XMClib/XMC_Peripheral_Library_v2.1.16/ThirdPartyLibraries/USBlib/USB/Core/XMC4000/USBController_XMC4000.c **** 		device.Endpoints[number].InBuffer = buf;
 1926              		.loc 1 553 37 view .LVU585
 1927 000c 4FF02C04 		mov	r4, #44
 1928 0010 04FB0303 		mla	r3, r4, r3, r0
 1929              	.LVL111:
 554:/opt/XMClib/XMC_Peripheral_Library_v2.1.16/ThirdPartyLibraries/USBlib/USB/Core/XMC4000/USBController_XMC4000.c **** 		device.Endpoints[number].InBufferLength = len;
 1930              		.loc 1 554 43 view .LVU586
 1931 0014 14BF     		ite	ne
 1932 0016 C3E90812 		strdne	r1, r2, [r3, #32]
 557:/opt/XMClib/XMC_Peripheral_Library_v2.1.16/ThirdPartyLibraries/USBlib/USB/Core/XMC4000/USBController_XMC4000.c **** 		device.Endpoints[number].OutBufferLength = len;
 1933              		.loc 1 557 44 view .LVU587
 1934 001a C3E90512 		strdeq	r1, r2, [r3, #20]
 558:/opt/XMClib/XMC_Peripheral_Library_v2.1.16/ThirdPartyLibraries/USBlib/USB/Core/XMC4000/USBController_XMC4000.c **** 	}
 559:/opt/XMClib/XMC_Peripheral_Library_v2.1.16/ThirdPartyLibraries/USBlib/USB/Core/XMC4000/USBController_XMC4000.c **** }
 1935              		.loc 1 559 1 view .LVU588
 1936 001e 5DF8044B 		ldr	r4, [sp], #4
 1937              	.LCFI50:
 1938              		.cfi_restore 4
 1939              		.cfi_def_cfa_offset 0
 1940 0022 7047     		bx	lr
 1941              	.L146:
 1942              		.align	2
 1943              	.L145:
 1944 0024 00000000 		.word	device
 1945              		.cfi_endproc
 1946              	.LFE197:
 1948              		.comm	endpoint0_out_buffer,256,4
 1949              		.comm	endpoint0_in_buffer,256,4
 1950              		.comm	device,320,4
 1951              		.text
 1952              	.Letext0:
 1953              		.file 2 "/usr/lib/gcc/arm-none-eabi/9.2.1/include/stdint.h"
 1954              		.file 3 "/usr/lib/gcc/arm-none-eabi/9.2.1/include/stddef.h"
 1955              		.file 4 "/usr/include/newlib/sys/_types.h"
 1956              		.file 5 "/usr/include/newlib/sys/reent.h"
 1957              		.file 6 "/usr/include/newlib/sys/lock.h"
 1958              		.file 7 "/opt/XMClib/XMC_Peripheral_Library_v2.1.16/CMSIS/Include/core_cm4.h"
 1959              		.file 8 "/opt/XMClib/XMC_Peripheral_Library_v2.1.16/CMSIS/Infineon/XMC4500_series/Include/system_X
 1960              		.file 9 "/opt/XMClib/XMC_Peripheral_Library_v2.1.16/CMSIS/Infineon/XMC4500_series/Include/XMC4500.
 1961              		.file 10 "/usr/include/newlib/stdlib.h"
 1962              		.file 11 "/opt/XMClib/XMC_Peripheral_Library_v2.1.16/XMCLib/inc/xmc_usbd_regs.h"
 1963              		.file 12 "/opt/XMClib/XMC_Peripheral_Library_v2.1.16/XMCLib/inc/xmc_usbd.h"
 1964              		.file 13 "/opt/XMClib/XMC_Peripheral_Library_v2.1.16/ThirdPartyLibraries/USBlib/USB/Core/XMC4000/.
 1965              		.file 14 "/opt/XMClib/XMC_Peripheral_Library_v2.1.16/ThirdPartyLibraries/USBlib/USB/Core/XMC4000/.
 1966              		.file 15 "/opt/XMClib/XMC_Peripheral_Library_v2.1.16/ThirdPartyLibraries/USBlib/USB/Core/XMC4000/.
 1967              		.file 16 "/opt/XMClib/XMC_Peripheral_Library_v2.1.16/ThirdPartyLibraries/USBlib/USB/Core/XMC4000/.
 1968              		.file 17 "/opt/XMClib/XMC_Peripheral_Library_v2.1.16/ThirdPartyLibraries/USBlib/USB/Core/XMC4000/.
 1969              		.file 18 "/opt/XMClib/XMC_Peripheral_Library_v2.1.16/ThirdPartyLibraries/USBlib/USB/Core/XMC4000/.
 1970              		.file 19 "<built-in>"