   1              		.cpu cortex-m4
   2              		.arch armv7e-m
   3              		.fpu fpv4-sp-d16
   4              		.eabi_attribute 27, 1
   5              		.eabi_attribute 20, 1
   6              		.eabi_attribute 21, 1
   7              		.eabi_attribute 23, 3
   8              		.eabi_attribute 24, 1
   9              		.eabi_attribute 25, 1
  10              		.eabi_attribute 26, 1
  11              		.eabi_attribute 30, 6
  12              		.eabi_attribute 34, 1
  13              		.eabi_attribute 18, 4
  14              		.file	"xmc_rtc.c"
  15              		.text
  16              	.Ltext0:
  17              		.cfi_sections	.debug_frame
  18              		.section	.text.XMC_SCU_GetMirrorStatus,"ax",%progbits
  19              		.align	1
  20              		.syntax unified
  21              		.thumb
  22              		.thumb_func
  24              	XMC_SCU_GetMirrorStatus:
  25              	.LFB161:
  26              		.file 1 "/opt/XMClib/XMC_Peripheral_Library_v2.1.16/XMCLib/inc/xmc_scu.h"
   1:/opt/XMClib/XMC_Peripheral_Library_v2.1.16/XMCLib/inc/xmc_scu.h **** /**
   2:/opt/XMClib/XMC_Peripheral_Library_v2.1.16/XMCLib/inc/xmc_scu.h ****  * @file xmc_scu.h
   3:/opt/XMClib/XMC_Peripheral_Library_v2.1.16/XMCLib/inc/xmc_scu.h ****  * @date 2016-03-09
   4:/opt/XMClib/XMC_Peripheral_Library_v2.1.16/XMCLib/inc/xmc_scu.h ****  *
   5:/opt/XMClib/XMC_Peripheral_Library_v2.1.16/XMCLib/inc/xmc_scu.h ****  * @cond
   6:/opt/XMClib/XMC_Peripheral_Library_v2.1.16/XMCLib/inc/xmc_scu.h ****  **************************************************************************************************
   7:/opt/XMClib/XMC_Peripheral_Library_v2.1.16/XMCLib/inc/xmc_scu.h ****  * XMClib v2.1.16 - XMC Peripheral Driver Library 
   8:/opt/XMClib/XMC_Peripheral_Library_v2.1.16/XMCLib/inc/xmc_scu.h ****  *
   9:/opt/XMClib/XMC_Peripheral_Library_v2.1.16/XMCLib/inc/xmc_scu.h ****  * Copyright (c) 2015-2017, Infineon Technologies AG
  10:/opt/XMClib/XMC_Peripheral_Library_v2.1.16/XMCLib/inc/xmc_scu.h ****  * All rights reserved.                        
  11:/opt/XMClib/XMC_Peripheral_Library_v2.1.16/XMCLib/inc/xmc_scu.h ****  *                                             
  12:/opt/XMClib/XMC_Peripheral_Library_v2.1.16/XMCLib/inc/xmc_scu.h ****  * Redistribution and use in source and binary forms, with or without modification,are permitted pr
  13:/opt/XMClib/XMC_Peripheral_Library_v2.1.16/XMCLib/inc/xmc_scu.h ****  * following conditions are met:   
  14:/opt/XMClib/XMC_Peripheral_Library_v2.1.16/XMCLib/inc/xmc_scu.h ****  *                                                                              
  15:/opt/XMClib/XMC_Peripheral_Library_v2.1.16/XMCLib/inc/xmc_scu.h ****  * Redistributions of source code must retain the above copyright notice, this list of conditions a
  16:/opt/XMClib/XMC_Peripheral_Library_v2.1.16/XMCLib/inc/xmc_scu.h ****  * disclaimer.                        
  17:/opt/XMClib/XMC_Peripheral_Library_v2.1.16/XMCLib/inc/xmc_scu.h ****  * 
  18:/opt/XMClib/XMC_Peripheral_Library_v2.1.16/XMCLib/inc/xmc_scu.h ****  * Redistributions in binary form must reproduce the above copyright notice, this list of condition
  19:/opt/XMClib/XMC_Peripheral_Library_v2.1.16/XMCLib/inc/xmc_scu.h ****  * disclaimer in the documentation and/or other materials provided with the distribution.          
  20:/opt/XMClib/XMC_Peripheral_Library_v2.1.16/XMCLib/inc/xmc_scu.h ****  * 
  21:/opt/XMClib/XMC_Peripheral_Library_v2.1.16/XMCLib/inc/xmc_scu.h ****  * Neither the name of the copyright holders nor the names of its contributors may be used to endor
  22:/opt/XMClib/XMC_Peripheral_Library_v2.1.16/XMCLib/inc/xmc_scu.h ****  * products derived from this software without specific prior written permission.                  
  23:/opt/XMClib/XMC_Peripheral_Library_v2.1.16/XMCLib/inc/xmc_scu.h ****  *                                                                              
  24:/opt/XMClib/XMC_Peripheral_Library_v2.1.16/XMCLib/inc/xmc_scu.h ****  * THIS SOFTWARE IS PROVIDED BY THE COPYRIGHT HOLDERS AND CONTRIBUTORS "AS IS" AND ANY EXPRESS OR I
  25:/opt/XMClib/XMC_Peripheral_Library_v2.1.16/XMCLib/inc/xmc_scu.h ****  * INCLUDING, BUT NOT LIMITED TO, THE IMPLIED WARRANTIES OF MERCHANTABILITY AND FITNESS FOR A PARTI
  26:/opt/XMClib/XMC_Peripheral_Library_v2.1.16/XMCLib/inc/xmc_scu.h ****  * DISCLAIMED. IN NO EVENT SHALL THE COPYRIGHT HOLDER OR CONTRIBUTORS BE LIABLE  FOR ANY DIRECT, IN
  27:/opt/XMClib/XMC_Peripheral_Library_v2.1.16/XMCLib/inc/xmc_scu.h ****  * SPECIAL, EXEMPLARY, OR CONSEQUENTIAL DAMAGES (INCLUDING, BUT NOT LIMITED TO, PROCUREMENT OF SUBS
  28:/opt/XMClib/XMC_Peripheral_Library_v2.1.16/XMCLib/inc/xmc_scu.h ****  * SERVICES; LOSS OF USE, DATA, OR PROFITS; OR BUSINESS INTERRUPTION) HOWEVER CAUSED AND ON ANY THE
  29:/opt/XMClib/XMC_Peripheral_Library_v2.1.16/XMCLib/inc/xmc_scu.h ****  * WHETHER IN CONTRACT, STRICT LIABILITY,OR TORT (INCLUDING NEGLIGENCE OR OTHERWISE) ARISING IN ANY
  30:/opt/XMClib/XMC_Peripheral_Library_v2.1.16/XMCLib/inc/xmc_scu.h ****  * OF THIS SOFTWARE, EVEN IF ADVISED OF THE POSSIBILITY OF SUCH DAMAGE.                            
  31:/opt/XMClib/XMC_Peripheral_Library_v2.1.16/XMCLib/inc/xmc_scu.h ****  *                                                                              
  32:/opt/XMClib/XMC_Peripheral_Library_v2.1.16/XMCLib/inc/xmc_scu.h ****  * To improve the quality of the software, users are encouraged to share modifications, enhancement
  33:/opt/XMClib/XMC_Peripheral_Library_v2.1.16/XMCLib/inc/xmc_scu.h ****  * Infineon Technologies AG dave@infineon.com).                                                    
  34:/opt/XMClib/XMC_Peripheral_Library_v2.1.16/XMCLib/inc/xmc_scu.h ****  **************************************************************************************************
  35:/opt/XMClib/XMC_Peripheral_Library_v2.1.16/XMCLib/inc/xmc_scu.h ****  *
  36:/opt/XMClib/XMC_Peripheral_Library_v2.1.16/XMCLib/inc/xmc_scu.h ****  * Change History
  37:/opt/XMClib/XMC_Peripheral_Library_v2.1.16/XMCLib/inc/xmc_scu.h ****  * --------------
  38:/opt/XMClib/XMC_Peripheral_Library_v2.1.16/XMCLib/inc/xmc_scu.h ****  *
  39:/opt/XMClib/XMC_Peripheral_Library_v2.1.16/XMCLib/inc/xmc_scu.h ****  * 2015-02-20:
  40:/opt/XMClib/XMC_Peripheral_Library_v2.1.16/XMCLib/inc/xmc_scu.h ****  *     - Initial <br>
  41:/opt/XMClib/XMC_Peripheral_Library_v2.1.16/XMCLib/inc/xmc_scu.h ****  *
  42:/opt/XMClib/XMC_Peripheral_Library_v2.1.16/XMCLib/inc/xmc_scu.h ****  * 2015-05-20:
  43:/opt/XMClib/XMC_Peripheral_Library_v2.1.16/XMCLib/inc/xmc_scu.h ****  *     - Documentation improved <br>
  44:/opt/XMClib/XMC_Peripheral_Library_v2.1.16/XMCLib/inc/xmc_scu.h ****  *     - XMC_ASSERT() hanging issues have fixed for XMC4 devices. <br>
  45:/opt/XMClib/XMC_Peripheral_Library_v2.1.16/XMCLib/inc/xmc_scu.h ****  *
  46:/opt/XMClib/XMC_Peripheral_Library_v2.1.16/XMCLib/inc/xmc_scu.h ****  * 2015-06-20:
  47:/opt/XMClib/XMC_Peripheral_Library_v2.1.16/XMCLib/inc/xmc_scu.h ****  *     - Removed version macros and declaration of GetDriverVersion API
  48:/opt/XMClib/XMC_Peripheral_Library_v2.1.16/XMCLib/inc/xmc_scu.h ****  *     - Removed STATIC_INLINE property for the below APIs and declared as void
  49:/opt/XMClib/XMC_Peripheral_Library_v2.1.16/XMCLib/inc/xmc_scu.h ****  *       XMC_SCU_INTERRUPT_EnableEvent, XMC_SCU_INTERRUPT_DisableEvent,
  50:/opt/XMClib/XMC_Peripheral_Library_v2.1.16/XMCLib/inc/xmc_scu.h ****  *       XMC_SCU_INTERRUPT_TriggerEvent, XMC_SCU_INTERUPT_GetEventStatus,
  51:/opt/XMClib/XMC_Peripheral_Library_v2.1.16/XMCLib/inc/xmc_scu.h ****  *       XMC_SCU_INTERUPT_ClearEventStatus
  52:/opt/XMClib/XMC_Peripheral_Library_v2.1.16/XMCLib/inc/xmc_scu.h ****  *
  53:/opt/XMClib/XMC_Peripheral_Library_v2.1.16/XMCLib/inc/xmc_scu.h ****  * 2015-11-30:
  54:/opt/XMClib/XMC_Peripheral_Library_v2.1.16/XMCLib/inc/xmc_scu.h ****  *     - Documentation improved <br>
  55:/opt/XMClib/XMC_Peripheral_Library_v2.1.16/XMCLib/inc/xmc_scu.h ****  *      
  56:/opt/XMClib/XMC_Peripheral_Library_v2.1.16/XMCLib/inc/xmc_scu.h ****  * 2016-03-09:
  57:/opt/XMClib/XMC_Peripheral_Library_v2.1.16/XMCLib/inc/xmc_scu.h ****  *     - Optimization of write only registers
  58:/opt/XMClib/XMC_Peripheral_Library_v2.1.16/XMCLib/inc/xmc_scu.h ****  *      
  59:/opt/XMClib/XMC_Peripheral_Library_v2.1.16/XMCLib/inc/xmc_scu.h ****  * @endcond 
  60:/opt/XMClib/XMC_Peripheral_Library_v2.1.16/XMCLib/inc/xmc_scu.h ****  *
  61:/opt/XMClib/XMC_Peripheral_Library_v2.1.16/XMCLib/inc/xmc_scu.h ****  */
  62:/opt/XMClib/XMC_Peripheral_Library_v2.1.16/XMCLib/inc/xmc_scu.h **** #ifndef XMC_SCU_H
  63:/opt/XMClib/XMC_Peripheral_Library_v2.1.16/XMCLib/inc/xmc_scu.h **** #define XMC_SCU_H
  64:/opt/XMClib/XMC_Peripheral_Library_v2.1.16/XMCLib/inc/xmc_scu.h ****  
  65:/opt/XMClib/XMC_Peripheral_Library_v2.1.16/XMCLib/inc/xmc_scu.h **** /**************************************************************************************************
  66:/opt/XMClib/XMC_Peripheral_Library_v2.1.16/XMCLib/inc/xmc_scu.h ****  * HEADER FILES
  67:/opt/XMClib/XMC_Peripheral_Library_v2.1.16/XMCLib/inc/xmc_scu.h ****  **************************************************************************************************
  68:/opt/XMClib/XMC_Peripheral_Library_v2.1.16/XMCLib/inc/xmc_scu.h **** #include <xmc_common.h>
  69:/opt/XMClib/XMC_Peripheral_Library_v2.1.16/XMCLib/inc/xmc_scu.h **** 
  70:/opt/XMClib/XMC_Peripheral_Library_v2.1.16/XMCLib/inc/xmc_scu.h **** /**
  71:/opt/XMClib/XMC_Peripheral_Library_v2.1.16/XMCLib/inc/xmc_scu.h ****  * @addtogroup XMClib XMC Peripheral Library
  72:/opt/XMClib/XMC_Peripheral_Library_v2.1.16/XMCLib/inc/xmc_scu.h ****  * @{
  73:/opt/XMClib/XMC_Peripheral_Library_v2.1.16/XMCLib/inc/xmc_scu.h ****  */
  74:/opt/XMClib/XMC_Peripheral_Library_v2.1.16/XMCLib/inc/xmc_scu.h ****  
  75:/opt/XMClib/XMC_Peripheral_Library_v2.1.16/XMCLib/inc/xmc_scu.h **** /**
  76:/opt/XMClib/XMC_Peripheral_Library_v2.1.16/XMCLib/inc/xmc_scu.h ****  * @addtogroup SCU
  77:/opt/XMClib/XMC_Peripheral_Library_v2.1.16/XMCLib/inc/xmc_scu.h ****  * @brief System Control Unit(SCU) driver for XMC microcontroller family.
  78:/opt/XMClib/XMC_Peripheral_Library_v2.1.16/XMCLib/inc/xmc_scu.h ****  *
  79:/opt/XMClib/XMC_Peripheral_Library_v2.1.16/XMCLib/inc/xmc_scu.h ****  * System control unit is the SoC power, reset and a clock manager with additional responsibility o
  80:/opt/XMClib/XMC_Peripheral_Library_v2.1.16/XMCLib/inc/xmc_scu.h ****  * providing system stability protection and other auxiliary functions.<br>
  81:/opt/XMClib/XMC_Peripheral_Library_v2.1.16/XMCLib/inc/xmc_scu.h ****  * SCU provides the following features,
  82:/opt/XMClib/XMC_Peripheral_Library_v2.1.16/XMCLib/inc/xmc_scu.h ****  * -# Power control
  83:/opt/XMClib/XMC_Peripheral_Library_v2.1.16/XMCLib/inc/xmc_scu.h ****  \if XMC4 
  84:/opt/XMClib/XMC_Peripheral_Library_v2.1.16/XMCLib/inc/xmc_scu.h ****  * -# Hibernate control 
  85:/opt/XMClib/XMC_Peripheral_Library_v2.1.16/XMCLib/inc/xmc_scu.h ****  \endif
  86:/opt/XMClib/XMC_Peripheral_Library_v2.1.16/XMCLib/inc/xmc_scu.h ****  * -# Reset control
  87:/opt/XMClib/XMC_Peripheral_Library_v2.1.16/XMCLib/inc/xmc_scu.h ****  * -# Clock control
  88:/opt/XMClib/XMC_Peripheral_Library_v2.1.16/XMCLib/inc/xmc_scu.h ****  * -# Miscellaneous control(boot mode, system interrupts etc.)<br><br>
  89:/opt/XMClib/XMC_Peripheral_Library_v2.1.16/XMCLib/inc/xmc_scu.h ****  *
  90:/opt/XMClib/XMC_Peripheral_Library_v2.1.16/XMCLib/inc/xmc_scu.h ****  * The SCU driver is divided in to clock control logic, reset control logic, system interrupt contr
  91:/opt/XMClib/XMC_Peripheral_Library_v2.1.16/XMCLib/inc/xmc_scu.h ****  \if XMC4
  92:/opt/XMClib/XMC_Peripheral_Library_v2.1.16/XMCLib/inc/xmc_scu.h ****  * , hibernate control logic, trap control logic, parity control logic 
  93:/opt/XMClib/XMC_Peripheral_Library_v2.1.16/XMCLib/inc/xmc_scu.h ****  \endif
  94:/opt/XMClib/XMC_Peripheral_Library_v2.1.16/XMCLib/inc/xmc_scu.h ****  * and miscellaneous control logic.<br>
  95:/opt/XMClib/XMC_Peripheral_Library_v2.1.16/XMCLib/inc/xmc_scu.h ****  *
  96:/opt/XMClib/XMC_Peripheral_Library_v2.1.16/XMCLib/inc/xmc_scu.h ****  * Clock driver features:
  97:/opt/XMClib/XMC_Peripheral_Library_v2.1.16/XMCLib/inc/xmc_scu.h ****  * -# Allows clock configuration using the structure XMC_SCU_CLOCK_CONFIG_t and API XMC_SCU_CLOCK_I
  98:/opt/XMClib/XMC_Peripheral_Library_v2.1.16/XMCLib/inc/xmc_scu.h ****  \if XMC4
  99:/opt/XMClib/XMC_Peripheral_Library_v2.1.16/XMCLib/inc/xmc_scu.h ****  * -# Provides structure XMC_SCU_CLOCK_SYSPLL_CONFIG_t for configuring the system PLL
 100:/opt/XMClib/XMC_Peripheral_Library_v2.1.16/XMCLib/inc/xmc_scu.h ****  * -# Allows selection of clock source for system PLL, XMC_SCU_CLOCK_GetSystemPllClockSource()
 101:/opt/XMClib/XMC_Peripheral_Library_v2.1.16/XMCLib/inc/xmc_scu.h ****  * -# Provides APIs for configuring different module clock frequencies XMC_SCU_CLOCK_SetWdtClockDiv
 102:/opt/XMClib/XMC_Peripheral_Library_v2.1.16/XMCLib/inc/xmc_scu.h ****  * -# Allows selection of clock source for external output, XMC_SCU_CLOCK_SetExternalOutputClockSou
 103:/opt/XMClib/XMC_Peripheral_Library_v2.1.16/XMCLib/inc/xmc_scu.h ****  * -# Provides APIs for enabling external high power oscillator and ultra low power oscillator, XMC
 104:/opt/XMClib/XMC_Peripheral_Library_v2.1.16/XMCLib/inc/xmc_scu.h ****  * -# Provides APIs for getting various clock frequencies XMC_SCU_CLOCK_GetPeripheralClockFrequency
 105:/opt/XMClib/XMC_Peripheral_Library_v2.1.16/XMCLib/inc/xmc_scu.h ****  XMC_SCU_CLOCK_GetCpuClockFrequency(), XMC_SCU_CLOCK_GetSystemClockFrequency()<br>
 106:/opt/XMClib/XMC_Peripheral_Library_v2.1.16/XMCLib/inc/xmc_scu.h ****  \endif
 107:/opt/XMClib/XMC_Peripheral_Library_v2.1.16/XMCLib/inc/xmc_scu.h ****  \if XMC1
 108:/opt/XMClib/XMC_Peripheral_Library_v2.1.16/XMCLib/inc/xmc_scu.h ****  * -# Allows selection of peripheral clock frequency, XMC_SCU_CLOCK_SetFastPeripheralClockSource()
 109:/opt/XMClib/XMC_Peripheral_Library_v2.1.16/XMCLib/inc/xmc_scu.h ****  * -# Provides API to get the peripheral clock frequency, XMC_SCU_CLOCK_GetFastPeripheralClockFrequ
 110:/opt/XMClib/XMC_Peripheral_Library_v2.1.16/XMCLib/inc/xmc_scu.h ****  \endif
 111:/opt/XMClib/XMC_Peripheral_Library_v2.1.16/XMCLib/inc/xmc_scu.h ****  *
 112:/opt/XMClib/XMC_Peripheral_Library_v2.1.16/XMCLib/inc/xmc_scu.h ****  * Reset driver features:
 113:/opt/XMClib/XMC_Peripheral_Library_v2.1.16/XMCLib/inc/xmc_scu.h ****  \if XMC4
 114:/opt/XMClib/XMC_Peripheral_Library_v2.1.16/XMCLib/inc/xmc_scu.h ****  * -# Allows to handle peripheral reset XMC_SCU_RESET_AssertPeripheralReset(), XMC_SCU_RESET_Deasse
 115:/opt/XMClib/XMC_Peripheral_Library_v2.1.16/XMCLib/inc/xmc_scu.h ****  * -# Allows configuration of NMI generation for selected events, XMC_SCU_INTERRUPT_EnableNmiReques
 116:/opt/XMClib/XMC_Peripheral_Library_v2.1.16/XMCLib/inc/xmc_scu.h ****  \endif
 117:/opt/XMClib/XMC_Peripheral_Library_v2.1.16/XMCLib/inc/xmc_scu.h ****  \if XMC1
 118:/opt/XMClib/XMC_Peripheral_Library_v2.1.16/XMCLib/inc/xmc_scu.h ****  * -# Allows to trigger device reset XMC_SCU_RESET_AssertMasterReset()
 119:/opt/XMClib/XMC_Peripheral_Library_v2.1.16/XMCLib/inc/xmc_scu.h ****  * -# Allows to configure multiple sources for reset, XMC_SCU_RESET_EnableResetRequest()
 120:/opt/XMClib/XMC_Peripheral_Library_v2.1.16/XMCLib/inc/xmc_scu.h ****  \endif <br>
 121:/opt/XMClib/XMC_Peripheral_Library_v2.1.16/XMCLib/inc/xmc_scu.h ****  *
 122:/opt/XMClib/XMC_Peripheral_Library_v2.1.16/XMCLib/inc/xmc_scu.h ****  * Interrupt driver features:
 123:/opt/XMClib/XMC_Peripheral_Library_v2.1.16/XMCLib/inc/xmc_scu.h ****  * -# Provides APIs for enabling/ disabling interrupt event generation XMC_SCU_INTERRUPT_EnableEven
 124:/opt/XMClib/XMC_Peripheral_Library_v2.1.16/XMCLib/inc/xmc_scu.h ****  XMC_SCU_INTERRUPT_DisableEvent()
 125:/opt/XMClib/XMC_Peripheral_Library_v2.1.16/XMCLib/inc/xmc_scu.h ****  * -# Provides API for registering callback function for events XMC_SCU_INTERRUPT_SetEventHandler()
 126:/opt/XMClib/XMC_Peripheral_Library_v2.1.16/XMCLib/inc/xmc_scu.h ****  *
 127:/opt/XMClib/XMC_Peripheral_Library_v2.1.16/XMCLib/inc/xmc_scu.h ****  \if XMC4
 128:/opt/XMClib/XMC_Peripheral_Library_v2.1.16/XMCLib/inc/xmc_scu.h ****  * Hibernate driver features:
 129:/opt/XMClib/XMC_Peripheral_Library_v2.1.16/XMCLib/inc/xmc_scu.h ****  * -# Allows configuration of hibernate domain XMC_SCU_HIB_EnableHibernateDomain(), XMC_SCU_HIB_Dis
 130:/opt/XMClib/XMC_Peripheral_Library_v2.1.16/XMCLib/inc/xmc_scu.h ****  * -# Allows selection of standby clock source, XMC_SCU_HIB_SetStandbyClockSource()
 131:/opt/XMClib/XMC_Peripheral_Library_v2.1.16/XMCLib/inc/xmc_scu.h ****  * -# Allows selection of RTC clock source, XMC_SCU_HIB_SetRtcClockSource()
 132:/opt/XMClib/XMC_Peripheral_Library_v2.1.16/XMCLib/inc/xmc_scu.h ****  * -# Provides API for enabling slow internal clock used for backup clock, XMC_SCU_HIB_EnableIntern
 133:/opt/XMClib/XMC_Peripheral_Library_v2.1.16/XMCLib/inc/xmc_scu.h ****  *
 134:/opt/XMClib/XMC_Peripheral_Library_v2.1.16/XMCLib/inc/xmc_scu.h ****  * Trap driver features:
 135:/opt/XMClib/XMC_Peripheral_Library_v2.1.16/XMCLib/inc/xmc_scu.h ****  * -# Allows handling of trap XMC_SCU_TRAP_Enable(), XMC_SCU_TRAP_GetStatus(), XMC_SCU_TRAP_Trigger
 136:/opt/XMClib/XMC_Peripheral_Library_v2.1.16/XMCLib/inc/xmc_scu.h ****  *
 137:/opt/XMClib/XMC_Peripheral_Library_v2.1.16/XMCLib/inc/xmc_scu.h ****  * Parity driver features:
 138:/opt/XMClib/XMC_Peripheral_Library_v2.1.16/XMCLib/inc/xmc_scu.h ****  * -# Parity error generated by on-chip RAM can be monitored, XMC_SCU_PARITY_Enable(), XMC_SCU_PARI
 139:/opt/XMClib/XMC_Peripheral_Library_v2.1.16/XMCLib/inc/xmc_scu.h ****  * -# Allows configuration of trap generation on detection of parity error, XMC_SCU_PARITY_EnableTr
 140:/opt/XMClib/XMC_Peripheral_Library_v2.1.16/XMCLib/inc/xmc_scu.h ****  *
 141:/opt/XMClib/XMC_Peripheral_Library_v2.1.16/XMCLib/inc/xmc_scu.h ****  * Power driver features:
 142:/opt/XMClib/XMC_Peripheral_Library_v2.1.16/XMCLib/inc/xmc_scu.h ****  * -# Allows to power the USB module XMC_SCU_POWER_EnableUsb(), XMC_SCU_POWER_DisableUsb()
 143:/opt/XMClib/XMC_Peripheral_Library_v2.1.16/XMCLib/inc/xmc_scu.h ****  \endif
 144:/opt/XMClib/XMC_Peripheral_Library_v2.1.16/XMCLib/inc/xmc_scu.h ****  *
 145:/opt/XMClib/XMC_Peripheral_Library_v2.1.16/XMCLib/inc/xmc_scu.h ****  * Miscellaneous features:
 146:/opt/XMClib/XMC_Peripheral_Library_v2.1.16/XMCLib/inc/xmc_scu.h ****  * -# Allows to trigger multiple capture compare unit(CCU) channels to be started together XMC_SCU_
 147:/opt/XMClib/XMC_Peripheral_Library_v2.1.16/XMCLib/inc/xmc_scu.h ****  \if XMC4
 148:/opt/XMClib/XMC_Peripheral_Library_v2.1.16/XMCLib/inc/xmc_scu.h ****  * -# Enables configuration of out of range comparator (ORC) XMC_SCU_EnableOutOfRangeComparator()
 149:/opt/XMClib/XMC_Peripheral_Library_v2.1.16/XMCLib/inc/xmc_scu.h ****  * -# Enables configuration of die temperature sensor XMC_SCU_EnableTemperatureSensor(), XMC_SCU_Ca
 150:/opt/XMClib/XMC_Peripheral_Library_v2.1.16/XMCLib/inc/xmc_scu.h ****  * -# Enables configuration of device boot mode XMC_SCU_SetBootMode()<br>
 151:/opt/XMClib/XMC_Peripheral_Library_v2.1.16/XMCLib/inc/xmc_scu.h ****  \endif
 152:/opt/XMClib/XMC_Peripheral_Library_v2.1.16/XMCLib/inc/xmc_scu.h ****  \if XMC1
 153:/opt/XMClib/XMC_Peripheral_Library_v2.1.16/XMCLib/inc/xmc_scu.h ****  * -# Enables configuration of die temperature sensor XMC_SCU_StartTempMeasurement(), XMC_SCU_SetRa
 154:/opt/XMClib/XMC_Peripheral_Library_v2.1.16/XMCLib/inc/xmc_scu.h ****  * -# Allows configuring supply monitor unit using the structure XMC_SCU_SUPPLYMONITOR_t and API XM
 155:/opt/XMClib/XMC_Peripheral_Library_v2.1.16/XMCLib/inc/xmc_scu.h ****  * -# Allows handling of protected bits XMC_SCU_LockProtectedBits(), XMC_SCU_UnlockProtectedBits()<
 156:/opt/XMClib/XMC_Peripheral_Library_v2.1.16/XMCLib/inc/xmc_scu.h ****  \endif
 157:/opt/XMClib/XMC_Peripheral_Library_v2.1.16/XMCLib/inc/xmc_scu.h ****  * @{
 158:/opt/XMClib/XMC_Peripheral_Library_v2.1.16/XMCLib/inc/xmc_scu.h ****  */
 159:/opt/XMClib/XMC_Peripheral_Library_v2.1.16/XMCLib/inc/xmc_scu.h ****  
 160:/opt/XMClib/XMC_Peripheral_Library_v2.1.16/XMCLib/inc/xmc_scu.h **** /**************************************************************************************************
 161:/opt/XMClib/XMC_Peripheral_Library_v2.1.16/XMCLib/inc/xmc_scu.h ****  * MACROS
 162:/opt/XMClib/XMC_Peripheral_Library_v2.1.16/XMCLib/inc/xmc_scu.h ****  **************************************************************************************************
 163:/opt/XMClib/XMC_Peripheral_Library_v2.1.16/XMCLib/inc/xmc_scu.h **** 
 164:/opt/XMClib/XMC_Peripheral_Library_v2.1.16/XMCLib/inc/xmc_scu.h **** /**************************************************************************************************
 165:/opt/XMClib/XMC_Peripheral_Library_v2.1.16/XMCLib/inc/xmc_scu.h ****  * ENUMS
 166:/opt/XMClib/XMC_Peripheral_Library_v2.1.16/XMCLib/inc/xmc_scu.h ****  **************************************************************************************************
 167:/opt/XMClib/XMC_Peripheral_Library_v2.1.16/XMCLib/inc/xmc_scu.h **** /**
 168:/opt/XMClib/XMC_Peripheral_Library_v2.1.16/XMCLib/inc/xmc_scu.h ****  *  Defines the status of SCU API execution, used to verify the SCU related API calls.
 169:/opt/XMClib/XMC_Peripheral_Library_v2.1.16/XMCLib/inc/xmc_scu.h ****  */
 170:/opt/XMClib/XMC_Peripheral_Library_v2.1.16/XMCLib/inc/xmc_scu.h **** typedef enum XMC_SCU_STATUS 
 171:/opt/XMClib/XMC_Peripheral_Library_v2.1.16/XMCLib/inc/xmc_scu.h **** {
 172:/opt/XMClib/XMC_Peripheral_Library_v2.1.16/XMCLib/inc/xmc_scu.h ****   XMC_SCU_STATUS_OK   = 0UL, /**< SCU related operation successfully completed.*/
 173:/opt/XMClib/XMC_Peripheral_Library_v2.1.16/XMCLib/inc/xmc_scu.h ****   XMC_SCU_STATUS_ERROR,      /**< SCU related operation failed. When API cannot fulfill request, th
 174:/opt/XMClib/XMC_Peripheral_Library_v2.1.16/XMCLib/inc/xmc_scu.h ****   XMC_SCU_STATUS_BUSY,       /**< Cannot execute the SCU related operation request because
 175:/opt/XMClib/XMC_Peripheral_Library_v2.1.16/XMCLib/inc/xmc_scu.h ****                                   another operation is in progress. \a XMC_SCU_STATUS_BUSY is retur
 176:/opt/XMClib/XMC_Peripheral_Library_v2.1.16/XMCLib/inc/xmc_scu.h ****                                   processing another request. */
 177:/opt/XMClib/XMC_Peripheral_Library_v2.1.16/XMCLib/inc/xmc_scu.h **** } XMC_SCU_STATUS_t;
 178:/opt/XMClib/XMC_Peripheral_Library_v2.1.16/XMCLib/inc/xmc_scu.h **** 
 179:/opt/XMClib/XMC_Peripheral_Library_v2.1.16/XMCLib/inc/xmc_scu.h **** 
 180:/opt/XMClib/XMC_Peripheral_Library_v2.1.16/XMCLib/inc/xmc_scu.h **** /**************************************************************************************************
 181:/opt/XMClib/XMC_Peripheral_Library_v2.1.16/XMCLib/inc/xmc_scu.h ****  * DATA TYPES
 182:/opt/XMClib/XMC_Peripheral_Library_v2.1.16/XMCLib/inc/xmc_scu.h ****  **************************************************************************************************
 183:/opt/XMClib/XMC_Peripheral_Library_v2.1.16/XMCLib/inc/xmc_scu.h **** 
 184:/opt/XMClib/XMC_Peripheral_Library_v2.1.16/XMCLib/inc/xmc_scu.h **** /**
 185:/opt/XMClib/XMC_Peripheral_Library_v2.1.16/XMCLib/inc/xmc_scu.h ****  * Function pointer type used for registering callback functions on SCU event occurrence.
 186:/opt/XMClib/XMC_Peripheral_Library_v2.1.16/XMCLib/inc/xmc_scu.h ****  */
 187:/opt/XMClib/XMC_Peripheral_Library_v2.1.16/XMCLib/inc/xmc_scu.h **** typedef void (*XMC_SCU_INTERRUPT_EVENT_HANDLER_t)(void);
 188:/opt/XMClib/XMC_Peripheral_Library_v2.1.16/XMCLib/inc/xmc_scu.h **** 
 189:/opt/XMClib/XMC_Peripheral_Library_v2.1.16/XMCLib/inc/xmc_scu.h **** /**************************************************************************************************
 190:/opt/XMClib/XMC_Peripheral_Library_v2.1.16/XMCLib/inc/xmc_scu.h ****  * DEVICE EXTENSIONS
 191:/opt/XMClib/XMC_Peripheral_Library_v2.1.16/XMCLib/inc/xmc_scu.h ****  **************************************************************************************************
 192:/opt/XMClib/XMC_Peripheral_Library_v2.1.16/XMCLib/inc/xmc_scu.h **** 
 193:/opt/XMClib/XMC_Peripheral_Library_v2.1.16/XMCLib/inc/xmc_scu.h **** #if (UC_FAMILY == XMC1)
 194:/opt/XMClib/XMC_Peripheral_Library_v2.1.16/XMCLib/inc/xmc_scu.h **** #include <xmc1_scu.h>
 195:/opt/XMClib/XMC_Peripheral_Library_v2.1.16/XMCLib/inc/xmc_scu.h **** #elif (UC_FAMILY == XMC4)
 196:/opt/XMClib/XMC_Peripheral_Library_v2.1.16/XMCLib/inc/xmc_scu.h **** #include <xmc4_scu.h>
 197:/opt/XMClib/XMC_Peripheral_Library_v2.1.16/XMCLib/inc/xmc_scu.h **** #else
 198:/opt/XMClib/XMC_Peripheral_Library_v2.1.16/XMCLib/inc/xmc_scu.h **** #error "Unspecified chipset"
 199:/opt/XMClib/XMC_Peripheral_Library_v2.1.16/XMCLib/inc/xmc_scu.h **** #endif
 200:/opt/XMClib/XMC_Peripheral_Library_v2.1.16/XMCLib/inc/xmc_scu.h **** 
 201:/opt/XMClib/XMC_Peripheral_Library_v2.1.16/XMCLib/inc/xmc_scu.h **** /**************************************************************************************************
 202:/opt/XMClib/XMC_Peripheral_Library_v2.1.16/XMCLib/inc/xmc_scu.h ****  * API Prototypes
 203:/opt/XMClib/XMC_Peripheral_Library_v2.1.16/XMCLib/inc/xmc_scu.h ****  **************************************************************************************************
 204:/opt/XMClib/XMC_Peripheral_Library_v2.1.16/XMCLib/inc/xmc_scu.h **** 
 205:/opt/XMClib/XMC_Peripheral_Library_v2.1.16/XMCLib/inc/xmc_scu.h **** #ifdef __cplusplus
 206:/opt/XMClib/XMC_Peripheral_Library_v2.1.16/XMCLib/inc/xmc_scu.h **** extern "C" {
 207:/opt/XMClib/XMC_Peripheral_Library_v2.1.16/XMCLib/inc/xmc_scu.h **** #endif
 208:/opt/XMClib/XMC_Peripheral_Library_v2.1.16/XMCLib/inc/xmc_scu.h **** 
 209:/opt/XMClib/XMC_Peripheral_Library_v2.1.16/XMCLib/inc/xmc_scu.h **** 
 210:/opt/XMClib/XMC_Peripheral_Library_v2.1.16/XMCLib/inc/xmc_scu.h **** /**
 211:/opt/XMClib/XMC_Peripheral_Library_v2.1.16/XMCLib/inc/xmc_scu.h ****  *
 212:/opt/XMClib/XMC_Peripheral_Library_v2.1.16/XMCLib/inc/xmc_scu.h ****  * @param trigger    CCU slices to be triggered synchronously via software. The value is a bitmask 
 213:/opt/XMClib/XMC_Peripheral_Library_v2.1.16/XMCLib/inc/xmc_scu.h ****  *                    in the register CCUCON. <br>
 214:/opt/XMClib/XMC_Peripheral_Library_v2.1.16/XMCLib/inc/xmc_scu.h ****  *                    \b Range: Use type @ref XMC_SCU_CCU_TRIGGER_t for bitmask of individual CCU s
 215:/opt/XMClib/XMC_Peripheral_Library_v2.1.16/XMCLib/inc/xmc_scu.h ****  *                    combined using \a OR operation.
 216:/opt/XMClib/XMC_Peripheral_Library_v2.1.16/XMCLib/inc/xmc_scu.h ****  *
 217:/opt/XMClib/XMC_Peripheral_Library_v2.1.16/XMCLib/inc/xmc_scu.h ****  * @return None
 218:/opt/XMClib/XMC_Peripheral_Library_v2.1.16/XMCLib/inc/xmc_scu.h ****  *
 219:/opt/XMClib/XMC_Peripheral_Library_v2.1.16/XMCLib/inc/xmc_scu.h ****  * \par<b>Description</b><br>
 220:/opt/XMClib/XMC_Peripheral_Library_v2.1.16/XMCLib/inc/xmc_scu.h ****  * Generates active edge(low to high) trigger for multiple CCU units at the same time.\n\n
 221:/opt/XMClib/XMC_Peripheral_Library_v2.1.16/XMCLib/inc/xmc_scu.h ****  * Before executing this API, all the required CCU timers should configure external start.
 222:/opt/XMClib/XMC_Peripheral_Library_v2.1.16/XMCLib/inc/xmc_scu.h ****  * The edge of the start signal should be selected as active edge.
 223:/opt/XMClib/XMC_Peripheral_Library_v2.1.16/XMCLib/inc/xmc_scu.h ****  * The input signal for the CCU slice should be selected as SCU input.
 224:/opt/XMClib/XMC_Peripheral_Library_v2.1.16/XMCLib/inc/xmc_scu.h ****  * The above mentioned configurations can be made using the CCU LLD API XMC_CCU4_SLICE_StartConfig(
 225:/opt/XMClib/XMC_Peripheral_Library_v2.1.16/XMCLib/inc/xmc_scu.h ****  * CCU timer slice should be started using XMC_CCU4_SLICE_StartTimer() before triggering 
 226:/opt/XMClib/XMC_Peripheral_Library_v2.1.16/XMCLib/inc/xmc_scu.h ****  * the timer using this API.<BR>
 227:/opt/XMClib/XMC_Peripheral_Library_v2.1.16/XMCLib/inc/xmc_scu.h ****  * \par<b>Related APIs:</b><BR>
 228:/opt/XMClib/XMC_Peripheral_Library_v2.1.16/XMCLib/inc/xmc_scu.h ****  * XMC_CCU4_SLICE_StartConfig(), XMC_CCU4_SLICE_SetInput(), XMC_SCU_SetCcuTriggerLow()\n\n\n
 229:/opt/XMClib/XMC_Peripheral_Library_v2.1.16/XMCLib/inc/xmc_scu.h ****  */
 230:/opt/XMClib/XMC_Peripheral_Library_v2.1.16/XMCLib/inc/xmc_scu.h **** __STATIC_INLINE void XMC_SCU_SetCcuTriggerHigh(const uint32_t trigger)
 231:/opt/XMClib/XMC_Peripheral_Library_v2.1.16/XMCLib/inc/xmc_scu.h **** {
 232:/opt/XMClib/XMC_Peripheral_Library_v2.1.16/XMCLib/inc/xmc_scu.h ****   SCU_GENERAL->CCUCON |= (uint32_t)trigger;
 233:/opt/XMClib/XMC_Peripheral_Library_v2.1.16/XMCLib/inc/xmc_scu.h **** }
 234:/opt/XMClib/XMC_Peripheral_Library_v2.1.16/XMCLib/inc/xmc_scu.h **** 
 235:/opt/XMClib/XMC_Peripheral_Library_v2.1.16/XMCLib/inc/xmc_scu.h **** /**
 236:/opt/XMClib/XMC_Peripheral_Library_v2.1.16/XMCLib/inc/xmc_scu.h ****  *
 237:/opt/XMClib/XMC_Peripheral_Library_v2.1.16/XMCLib/inc/xmc_scu.h ****  * @param trigger  CCU slices to be triggered synchronously via software. The value is a bitmask of
 238:/opt/XMClib/XMC_Peripheral_Library_v2.1.16/XMCLib/inc/xmc_scu.h ****  *                    in the register CCUCON. <br>
 239:/opt/XMClib/XMC_Peripheral_Library_v2.1.16/XMCLib/inc/xmc_scu.h ****  *                    \b Range: Use type @ref XMC_SCU_CCU_TRIGGER_t for bitmask of individual CCU s
 240:/opt/XMClib/XMC_Peripheral_Library_v2.1.16/XMCLib/inc/xmc_scu.h ****  *                    combined using \a OR operation.
 241:/opt/XMClib/XMC_Peripheral_Library_v2.1.16/XMCLib/inc/xmc_scu.h ****  *
 242:/opt/XMClib/XMC_Peripheral_Library_v2.1.16/XMCLib/inc/xmc_scu.h ****  * @return None
 243:/opt/XMClib/XMC_Peripheral_Library_v2.1.16/XMCLib/inc/xmc_scu.h ****  *
 244:/opt/XMClib/XMC_Peripheral_Library_v2.1.16/XMCLib/inc/xmc_scu.h ****  * \par<b>Description</b><br>
 245:/opt/XMClib/XMC_Peripheral_Library_v2.1.16/XMCLib/inc/xmc_scu.h ****  * Generates passive edge(high to low) trigger for multiple CCU units at the same time.\n\n
 246:/opt/XMClib/XMC_Peripheral_Library_v2.1.16/XMCLib/inc/xmc_scu.h ****  * Before executing this API, all the required CCU timers should configure external start.
 247:/opt/XMClib/XMC_Peripheral_Library_v2.1.16/XMCLib/inc/xmc_scu.h ****  * The edge of the start signal should be selected as passive edge.
 248:/opt/XMClib/XMC_Peripheral_Library_v2.1.16/XMCLib/inc/xmc_scu.h ****  * The input signal for the CCU slice should be selected as SCU input.
 249:/opt/XMClib/XMC_Peripheral_Library_v2.1.16/XMCLib/inc/xmc_scu.h ****  * The above mentioned configurations can be made using the CCU LLD API XMC_CCU4_SLICE_StartConfig(
 250:/opt/XMClib/XMC_Peripheral_Library_v2.1.16/XMCLib/inc/xmc_scu.h ****  * CCU timer slice should be started using XMC_CCU4_SLICE_StartTimer() before triggering 
 251:/opt/XMClib/XMC_Peripheral_Library_v2.1.16/XMCLib/inc/xmc_scu.h ****  * the timer using this API.<BR>
 252:/opt/XMClib/XMC_Peripheral_Library_v2.1.16/XMCLib/inc/xmc_scu.h ****  * \par<b>Related APIs:</b><BR>
 253:/opt/XMClib/XMC_Peripheral_Library_v2.1.16/XMCLib/inc/xmc_scu.h ****  * XMC_CCU4_SLICE_StartConfig(), XMC_CCU4_SLICE_SetInput(), XMC_SCU_SetCcuTriggerHigh()\n\n\n
 254:/opt/XMClib/XMC_Peripheral_Library_v2.1.16/XMCLib/inc/xmc_scu.h ****  */
 255:/opt/XMClib/XMC_Peripheral_Library_v2.1.16/XMCLib/inc/xmc_scu.h **** __STATIC_INLINE void XMC_SCU_SetCcuTriggerLow(const uint32_t trigger)
 256:/opt/XMClib/XMC_Peripheral_Library_v2.1.16/XMCLib/inc/xmc_scu.h **** {
 257:/opt/XMClib/XMC_Peripheral_Library_v2.1.16/XMCLib/inc/xmc_scu.h ****   SCU_GENERAL->CCUCON &= (uint32_t)~trigger;
 258:/opt/XMClib/XMC_Peripheral_Library_v2.1.16/XMCLib/inc/xmc_scu.h **** }
 259:/opt/XMClib/XMC_Peripheral_Library_v2.1.16/XMCLib/inc/xmc_scu.h **** 
 260:/opt/XMClib/XMC_Peripheral_Library_v2.1.16/XMCLib/inc/xmc_scu.h **** /**
 261:/opt/XMClib/XMC_Peripheral_Library_v2.1.16/XMCLib/inc/xmc_scu.h ****  *
 262:/opt/XMClib/XMC_Peripheral_Library_v2.1.16/XMCLib/inc/xmc_scu.h ****  * @param config Pointer to structure holding the clock prescaler values and divider values for 
 263:/opt/XMClib/XMC_Peripheral_Library_v2.1.16/XMCLib/inc/xmc_scu.h ****  *                configuring clock generators and clock tree.\n
 264:/opt/XMClib/XMC_Peripheral_Library_v2.1.16/XMCLib/inc/xmc_scu.h ****  *                \b Range: Configure the members of structure @ref XMC_SCU_CLOCK_CONFIG_t for vari
 265:/opt/XMClib/XMC_Peripheral_Library_v2.1.16/XMCLib/inc/xmc_scu.h ****  *                parameters of clock setup.
 266:/opt/XMClib/XMC_Peripheral_Library_v2.1.16/XMCLib/inc/xmc_scu.h ****  *
 267:/opt/XMClib/XMC_Peripheral_Library_v2.1.16/XMCLib/inc/xmc_scu.h ****  * @return None
 268:/opt/XMClib/XMC_Peripheral_Library_v2.1.16/XMCLib/inc/xmc_scu.h ****  *
 269:/opt/XMClib/XMC_Peripheral_Library_v2.1.16/XMCLib/inc/xmc_scu.h ****  * \par<b>Description</b><br>
 270:/opt/XMClib/XMC_Peripheral_Library_v2.1.16/XMCLib/inc/xmc_scu.h ****  * Initializes clock generators and clock tree.\n\n
 271:/opt/XMClib/XMC_Peripheral_Library_v2.1.16/XMCLib/inc/xmc_scu.h ****  * \if XMC1
 272:/opt/XMClib/XMC_Peripheral_Library_v2.1.16/XMCLib/inc/xmc_scu.h ****  * Peripheral clock and system clock are configured based on the input configuration \a config.
 273:/opt/XMClib/XMC_Peripheral_Library_v2.1.16/XMCLib/inc/xmc_scu.h ****  * The system clock frequency is tuned by configuring the FDIV and IDIV values of CLKCR register.
 274:/opt/XMClib/XMC_Peripheral_Library_v2.1.16/XMCLib/inc/xmc_scu.h ****  * The values of FDIV and IDIV can be provided as part of input configuration.
 275:/opt/XMClib/XMC_Peripheral_Library_v2.1.16/XMCLib/inc/xmc_scu.h ****  * The PCLK divider determines the ratio of peripheral clock to the system clock. 
 276:/opt/XMClib/XMC_Peripheral_Library_v2.1.16/XMCLib/inc/xmc_scu.h ****  * The source of RTC clock is set based on the input configuration. 
 277:/opt/XMClib/XMC_Peripheral_Library_v2.1.16/XMCLib/inc/xmc_scu.h ****  * \a SystemCoreClock variable will be updated with the value of
 278:/opt/XMClib/XMC_Peripheral_Library_v2.1.16/XMCLib/inc/xmc_scu.h ****  * system clock frequency. Access to protected bit fields are handled internally.
 279:/opt/XMClib/XMC_Peripheral_Library_v2.1.16/XMCLib/inc/xmc_scu.h ****  * \endif
 280:/opt/XMClib/XMC_Peripheral_Library_v2.1.16/XMCLib/inc/xmc_scu.h ****  * \if XMC4
 281:/opt/XMClib/XMC_Peripheral_Library_v2.1.16/XMCLib/inc/xmc_scu.h ****  * Enables the high precision oscillator(fOHP) input and configures the system and peripheral clock
 282:/opt/XMClib/XMC_Peripheral_Library_v2.1.16/XMCLib/inc/xmc_scu.h ****  * Based on the system clock source selected in \a config, either fPLL or fOFI will be chosen as sy
 283:/opt/XMClib/XMC_Peripheral_Library_v2.1.16/XMCLib/inc/xmc_scu.h ****  * Based on PLL mode(normal or prescaler mode) used, PLL ramps up in steps to achieve target freque
 284:/opt/XMClib/XMC_Peripheral_Library_v2.1.16/XMCLib/inc/xmc_scu.h ****  * The clock dividers for CPU, CCU and peripheral clocks will be set based on the input configurati
 285:/opt/XMClib/XMC_Peripheral_Library_v2.1.16/XMCLib/inc/xmc_scu.h ****  * The \a SystemCoreClock variable is set with the value of system clock frequency.
 286:/opt/XMClib/XMC_Peripheral_Library_v2.1.16/XMCLib/inc/xmc_scu.h ****  * \endif
 287:/opt/XMClib/XMC_Peripheral_Library_v2.1.16/XMCLib/inc/xmc_scu.h ****  * \par<b>Related APIs:</b><BR>
 288:/opt/XMClib/XMC_Peripheral_Library_v2.1.16/XMCLib/inc/xmc_scu.h ****  * XMC_SCU_CLOCK_GetPeripheralClockFrequency(), XMC_SCU_CLOCK_GetCpuClockFrequency() \n\n\n
 289:/opt/XMClib/XMC_Peripheral_Library_v2.1.16/XMCLib/inc/xmc_scu.h ****  */
 290:/opt/XMClib/XMC_Peripheral_Library_v2.1.16/XMCLib/inc/xmc_scu.h **** void XMC_SCU_CLOCK_Init(const XMC_SCU_CLOCK_CONFIG_t *const config);
 291:/opt/XMClib/XMC_Peripheral_Library_v2.1.16/XMCLib/inc/xmc_scu.h **** 
 292:/opt/XMClib/XMC_Peripheral_Library_v2.1.16/XMCLib/inc/xmc_scu.h **** /**
 293:/opt/XMClib/XMC_Peripheral_Library_v2.1.16/XMCLib/inc/xmc_scu.h ****  *
 294:/opt/XMClib/XMC_Peripheral_Library_v2.1.16/XMCLib/inc/xmc_scu.h ****  * @param event  Bit mask of the event to enable. \b Range: Use type @ref XMC_SCU_INTERRUPT_EVENT_t
 295:/opt/XMClib/XMC_Peripheral_Library_v2.1.16/XMCLib/inc/xmc_scu.h ****  *                for providing the input value. Multiple events can be combined using the \a OR op
 296:/opt/XMClib/XMC_Peripheral_Library_v2.1.16/XMCLib/inc/xmc_scu.h ****  *
 297:/opt/XMClib/XMC_Peripheral_Library_v2.1.16/XMCLib/inc/xmc_scu.h ****  * @return None
 298:/opt/XMClib/XMC_Peripheral_Library_v2.1.16/XMCLib/inc/xmc_scu.h ****  *
 299:/opt/XMClib/XMC_Peripheral_Library_v2.1.16/XMCLib/inc/xmc_scu.h ****  * \par<b>Description</b><br>
 300:/opt/XMClib/XMC_Peripheral_Library_v2.1.16/XMCLib/inc/xmc_scu.h ****  * Enables the generation of interrupt for the input events.\n\n
 301:/opt/XMClib/XMC_Peripheral_Library_v2.1.16/XMCLib/inc/xmc_scu.h ****  * The events are enabled by setting the respective bit fields in the SRMSK register. \n
 302:/opt/XMClib/XMC_Peripheral_Library_v2.1.16/XMCLib/inc/xmc_scu.h ****  * Note: User should separately enable the NVIC node responsible for handling the SCU interrupt.
 303:/opt/XMClib/XMC_Peripheral_Library_v2.1.16/XMCLib/inc/xmc_scu.h ****  * The interrupt will be generated when the respective event occurs.
 304:/opt/XMClib/XMC_Peripheral_Library_v2.1.16/XMCLib/inc/xmc_scu.h ****  * \par<b>Related APIs:</b><BR>
 305:/opt/XMClib/XMC_Peripheral_Library_v2.1.16/XMCLib/inc/xmc_scu.h ****  * NVIC_EnableIRQ(), XMC_SCU_INTERRUPT_DisableEvent()\n\n\n
 306:/opt/XMClib/XMC_Peripheral_Library_v2.1.16/XMCLib/inc/xmc_scu.h ****  */
 307:/opt/XMClib/XMC_Peripheral_Library_v2.1.16/XMCLib/inc/xmc_scu.h **** void XMC_SCU_INTERRUPT_EnableEvent(const XMC_SCU_INTERRUPT_EVENT_t event);
 308:/opt/XMClib/XMC_Peripheral_Library_v2.1.16/XMCLib/inc/xmc_scu.h **** 
 309:/opt/XMClib/XMC_Peripheral_Library_v2.1.16/XMCLib/inc/xmc_scu.h **** 
 310:/opt/XMClib/XMC_Peripheral_Library_v2.1.16/XMCLib/inc/xmc_scu.h **** /**
 311:/opt/XMClib/XMC_Peripheral_Library_v2.1.16/XMCLib/inc/xmc_scu.h ****  *
 312:/opt/XMClib/XMC_Peripheral_Library_v2.1.16/XMCLib/inc/xmc_scu.h ****  * @param event  Bit mask of the event to disable. \b Range: Use type @ref XMC_SCU_INTERRUPT_EVENT_
 313:/opt/XMClib/XMC_Peripheral_Library_v2.1.16/XMCLib/inc/xmc_scu.h ****  *                for providing the input value. Multiple events can be combined using the \a OR op
 314:/opt/XMClib/XMC_Peripheral_Library_v2.1.16/XMCLib/inc/xmc_scu.h ****  *
 315:/opt/XMClib/XMC_Peripheral_Library_v2.1.16/XMCLib/inc/xmc_scu.h ****  * @return None
 316:/opt/XMClib/XMC_Peripheral_Library_v2.1.16/XMCLib/inc/xmc_scu.h ****  *
 317:/opt/XMClib/XMC_Peripheral_Library_v2.1.16/XMCLib/inc/xmc_scu.h ****  * \par<b>Description</b><br>
 318:/opt/XMClib/XMC_Peripheral_Library_v2.1.16/XMCLib/inc/xmc_scu.h ****  * Disables generation of interrupt on occurrence of the input event.\n\n
 319:/opt/XMClib/XMC_Peripheral_Library_v2.1.16/XMCLib/inc/xmc_scu.h ****  * The events are disabled by resetting the respective bit fields in the SRMSK register. \n
 320:/opt/XMClib/XMC_Peripheral_Library_v2.1.16/XMCLib/inc/xmc_scu.h ****  * \par<b>Related APIs:</b><BR>
 321:/opt/XMClib/XMC_Peripheral_Library_v2.1.16/XMCLib/inc/xmc_scu.h ****  * NVIC_DisableIRQ(), XMC_SCU_INTERRUPT_EnableEvent()\n\n\n
 322:/opt/XMClib/XMC_Peripheral_Library_v2.1.16/XMCLib/inc/xmc_scu.h ****  */
 323:/opt/XMClib/XMC_Peripheral_Library_v2.1.16/XMCLib/inc/xmc_scu.h **** void XMC_SCU_INTERRUPT_DisableEvent(const XMC_SCU_INTERRUPT_EVENT_t event);
 324:/opt/XMClib/XMC_Peripheral_Library_v2.1.16/XMCLib/inc/xmc_scu.h **** 
 325:/opt/XMClib/XMC_Peripheral_Library_v2.1.16/XMCLib/inc/xmc_scu.h **** /**
 326:/opt/XMClib/XMC_Peripheral_Library_v2.1.16/XMCLib/inc/xmc_scu.h ****  *
 327:/opt/XMClib/XMC_Peripheral_Library_v2.1.16/XMCLib/inc/xmc_scu.h ****  * @param event Bit mask of the event to be triggered. \b Range: Use type @ref XMC_SCU_INTERRUPT_EV
 328:/opt/XMClib/XMC_Peripheral_Library_v2.1.16/XMCLib/inc/xmc_scu.h ****  *                for providing the input value. Multiple events can be combined using the \a OR op
 329:/opt/XMClib/XMC_Peripheral_Library_v2.1.16/XMCLib/inc/xmc_scu.h ****  *
 330:/opt/XMClib/XMC_Peripheral_Library_v2.1.16/XMCLib/inc/xmc_scu.h ****  * @return None
 331:/opt/XMClib/XMC_Peripheral_Library_v2.1.16/XMCLib/inc/xmc_scu.h ****  *
 332:/opt/XMClib/XMC_Peripheral_Library_v2.1.16/XMCLib/inc/xmc_scu.h ****  * \par<b>Description</b><br>
 333:/opt/XMClib/XMC_Peripheral_Library_v2.1.16/XMCLib/inc/xmc_scu.h ****  * Triggers the event as if the hardware raised it.\n\n
 334:/opt/XMClib/XMC_Peripheral_Library_v2.1.16/XMCLib/inc/xmc_scu.h ****  * Event will be triggered by setting the respective bitfield in the SRSET register.\n
 335:/opt/XMClib/XMC_Peripheral_Library_v2.1.16/XMCLib/inc/xmc_scu.h ****  * Note: User should enable the NVIC node that handles the respective event for interrupt generatio
 336:/opt/XMClib/XMC_Peripheral_Library_v2.1.16/XMCLib/inc/xmc_scu.h ****  * \par<b>Related APIs:</b><BR>
 337:/opt/XMClib/XMC_Peripheral_Library_v2.1.16/XMCLib/inc/xmc_scu.h ****  * NVIC_EnableIRQ(), XMC_SCU_INTERUPT_GetEventStatus(), XMC_SCU_INTERRUPT_ClearEventStatus() \n\n\n
 338:/opt/XMClib/XMC_Peripheral_Library_v2.1.16/XMCLib/inc/xmc_scu.h ****  */
 339:/opt/XMClib/XMC_Peripheral_Library_v2.1.16/XMCLib/inc/xmc_scu.h **** void XMC_SCU_INTERRUPT_TriggerEvent(const XMC_SCU_INTERRUPT_EVENT_t  event);
 340:/opt/XMClib/XMC_Peripheral_Library_v2.1.16/XMCLib/inc/xmc_scu.h **** 
 341:/opt/XMClib/XMC_Peripheral_Library_v2.1.16/XMCLib/inc/xmc_scu.h **** /**
 342:/opt/XMClib/XMC_Peripheral_Library_v2.1.16/XMCLib/inc/xmc_scu.h ****  * @return uint32_t  Status of the SCU events.
 343:/opt/XMClib/XMC_Peripheral_Library_v2.1.16/XMCLib/inc/xmc_scu.h ****  *
 344:/opt/XMClib/XMC_Peripheral_Library_v2.1.16/XMCLib/inc/xmc_scu.h ****  * \par<b>Description</b><br>
 345:/opt/XMClib/XMC_Peripheral_Library_v2.1.16/XMCLib/inc/xmc_scu.h ****  * Provides the status of all SCU events.\n\n
 346:/opt/XMClib/XMC_Peripheral_Library_v2.1.16/XMCLib/inc/xmc_scu.h ****  * The status is read from the SRRAW register. To check the status of a particular 
 347:/opt/XMClib/XMC_Peripheral_Library_v2.1.16/XMCLib/inc/xmc_scu.h ****  * event, the returned value should be masked with the bit mask of the event. The bitmask
 348:/opt/XMClib/XMC_Peripheral_Library_v2.1.16/XMCLib/inc/xmc_scu.h ****  * of events can be obtained using the type @ref XMC_SCU_INTERRUPT_EVENT_t. Multiple events'
 349:/opt/XMClib/XMC_Peripheral_Library_v2.1.16/XMCLib/inc/xmc_scu.h ****  * status can be checked by combining the bit masks using \a OR operation. 
 350:/opt/XMClib/XMC_Peripheral_Library_v2.1.16/XMCLib/inc/xmc_scu.h ****  * After detecting the event, the event status should be cleared using software to detect the event
 351:/opt/XMClib/XMC_Peripheral_Library_v2.1.16/XMCLib/inc/xmc_scu.h ****  * \par<b>Related APIs:</b><BR>
 352:/opt/XMClib/XMC_Peripheral_Library_v2.1.16/XMCLib/inc/xmc_scu.h ****  * XMC_SCU_INTERRUPT_ClearEventStatus(), XMC_SCU_INTERRUPT_TriggerEvent(), XMC_SCU_INTERRUPT_SetEve
 353:/opt/XMClib/XMC_Peripheral_Library_v2.1.16/XMCLib/inc/xmc_scu.h ****  */
 354:/opt/XMClib/XMC_Peripheral_Library_v2.1.16/XMCLib/inc/xmc_scu.h **** XMC_SCU_INTERRUPT_EVENT_t XMC_SCU_INTERUPT_GetEventStatus(void);
 355:/opt/XMClib/XMC_Peripheral_Library_v2.1.16/XMCLib/inc/xmc_scu.h **** 
 356:/opt/XMClib/XMC_Peripheral_Library_v2.1.16/XMCLib/inc/xmc_scu.h **** /**
 357:/opt/XMClib/XMC_Peripheral_Library_v2.1.16/XMCLib/inc/xmc_scu.h ****  *
 358:/opt/XMClib/XMC_Peripheral_Library_v2.1.16/XMCLib/inc/xmc_scu.h ****  * @param event  Bit mask of the events to clear. \b Range: Use type @ref XMC_SCU_INTERRUPT_EVENT_t
 359:/opt/XMClib/XMC_Peripheral_Library_v2.1.16/XMCLib/inc/xmc_scu.h ****  *                for providing the input value. Multiple events can be combined using the \a OR op
 360:/opt/XMClib/XMC_Peripheral_Library_v2.1.16/XMCLib/inc/xmc_scu.h ****  *
 361:/opt/XMClib/XMC_Peripheral_Library_v2.1.16/XMCLib/inc/xmc_scu.h ****  * @return None
 362:/opt/XMClib/XMC_Peripheral_Library_v2.1.16/XMCLib/inc/xmc_scu.h ****  *
 363:/opt/XMClib/XMC_Peripheral_Library_v2.1.16/XMCLib/inc/xmc_scu.h ****  * \par<b>Description</b><br>
 364:/opt/XMClib/XMC_Peripheral_Library_v2.1.16/XMCLib/inc/xmc_scu.h ****  * Clears the event status bit in SRRAW register.\n\n
 365:/opt/XMClib/XMC_Peripheral_Library_v2.1.16/XMCLib/inc/xmc_scu.h ****  * The events are cleared by writing value 1 to their bit positions in the SRCLR register.
 366:/opt/XMClib/XMC_Peripheral_Library_v2.1.16/XMCLib/inc/xmc_scu.h ****  * The API can be used when polling method is used. After detecting the event, the event status
 367:/opt/XMClib/XMC_Peripheral_Library_v2.1.16/XMCLib/inc/xmc_scu.h ****  * should be cleared using software to detect the event again.
 368:/opt/XMClib/XMC_Peripheral_Library_v2.1.16/XMCLib/inc/xmc_scu.h ****  *
 369:/opt/XMClib/XMC_Peripheral_Library_v2.1.16/XMCLib/inc/xmc_scu.h ****  * \par<b>Related APIs:</b><BR>
 370:/opt/XMClib/XMC_Peripheral_Library_v2.1.16/XMCLib/inc/xmc_scu.h ****  * XMC_SCU_INTERUPT_GetEventStatus(), XMC_SCU_INTERRUPT_TriggerEvent() \n\n\n
 371:/opt/XMClib/XMC_Peripheral_Library_v2.1.16/XMCLib/inc/xmc_scu.h ****  */
 372:/opt/XMClib/XMC_Peripheral_Library_v2.1.16/XMCLib/inc/xmc_scu.h **** void XMC_SCU_INTERRUPT_ClearEventStatus(const XMC_SCU_INTERRUPT_EVENT_t event);
 373:/opt/XMClib/XMC_Peripheral_Library_v2.1.16/XMCLib/inc/xmc_scu.h **** 
 374:/opt/XMClib/XMC_Peripheral_Library_v2.1.16/XMCLib/inc/xmc_scu.h **** /**
 375:/opt/XMClib/XMC_Peripheral_Library_v2.1.16/XMCLib/inc/xmc_scu.h ****  *
 376:/opt/XMClib/XMC_Peripheral_Library_v2.1.16/XMCLib/inc/xmc_scu.h ****  * @return uint32_t  Status representing the reason for device reset.
 377:/opt/XMClib/XMC_Peripheral_Library_v2.1.16/XMCLib/inc/xmc_scu.h ****  *
 378:/opt/XMClib/XMC_Peripheral_Library_v2.1.16/XMCLib/inc/xmc_scu.h ****  * \par<b>Description</b><br>
 379:/opt/XMClib/XMC_Peripheral_Library_v2.1.16/XMCLib/inc/xmc_scu.h ****  * Provides the value representing the reason for device reset.\n\n
 380:/opt/XMClib/XMC_Peripheral_Library_v2.1.16/XMCLib/inc/xmc_scu.h ****  * The return value is an encoded word, which can indicate multiple reasons for the last reset. Eac
 381:/opt/XMClib/XMC_Peripheral_Library_v2.1.16/XMCLib/inc/xmc_scu.h ****  * returned word is representative of a last reset cause. The returned value should be appropriatel
 382:/opt/XMClib/XMC_Peripheral_Library_v2.1.16/XMCLib/inc/xmc_scu.h ****  * the cause of reset. 
 383:/opt/XMClib/XMC_Peripheral_Library_v2.1.16/XMCLib/inc/xmc_scu.h ****  * The cause of the last reset gets automatically stored in 
 384:/opt/XMClib/XMC_Peripheral_Library_v2.1.16/XMCLib/inc/xmc_scu.h ****  * the \a SCU_RSTSTAT register. The reset status shall be reset after each
 385:/opt/XMClib/XMC_Peripheral_Library_v2.1.16/XMCLib/inc/xmc_scu.h ****  * startup in order to ensure consistent source indication after the next reset.
 386:/opt/XMClib/XMC_Peripheral_Library_v2.1.16/XMCLib/inc/xmc_scu.h ****  * \b Range: The type @ref XMC_SCU_RESET_REASON_t can be used to get the bit masks of the reset cau
 387:/opt/XMClib/XMC_Peripheral_Library_v2.1.16/XMCLib/inc/xmc_scu.h ****  *
 388:/opt/XMClib/XMC_Peripheral_Library_v2.1.16/XMCLib/inc/xmc_scu.h ****  * \par<b>Related APIs:</b><BR>
 389:/opt/XMClib/XMC_Peripheral_Library_v2.1.16/XMCLib/inc/xmc_scu.h ****  * XMC_SCU_RESET_ClearDeviceResetReason() \n\n\n
 390:/opt/XMClib/XMC_Peripheral_Library_v2.1.16/XMCLib/inc/xmc_scu.h ****  */
 391:/opt/XMClib/XMC_Peripheral_Library_v2.1.16/XMCLib/inc/xmc_scu.h **** __STATIC_INLINE uint32_t XMC_SCU_RESET_GetDeviceResetReason(void)
 392:/opt/XMClib/XMC_Peripheral_Library_v2.1.16/XMCLib/inc/xmc_scu.h **** {
 393:/opt/XMClib/XMC_Peripheral_Library_v2.1.16/XMCLib/inc/xmc_scu.h ****   return ((SCU_RESET->RSTSTAT) & SCU_RESET_RSTSTAT_RSTSTAT_Msk);
 394:/opt/XMClib/XMC_Peripheral_Library_v2.1.16/XMCLib/inc/xmc_scu.h **** }
 395:/opt/XMClib/XMC_Peripheral_Library_v2.1.16/XMCLib/inc/xmc_scu.h **** /**
 396:/opt/XMClib/XMC_Peripheral_Library_v2.1.16/XMCLib/inc/xmc_scu.h ****  * @return None 
 397:/opt/XMClib/XMC_Peripheral_Library_v2.1.16/XMCLib/inc/xmc_scu.h ****  *
 398:/opt/XMClib/XMC_Peripheral_Library_v2.1.16/XMCLib/inc/xmc_scu.h ****  * \par<b>Description</b><br>
 399:/opt/XMClib/XMC_Peripheral_Library_v2.1.16/XMCLib/inc/xmc_scu.h ****  * Clears the reset reason bits in the reset status register. \n\n
 400:/opt/XMClib/XMC_Peripheral_Library_v2.1.16/XMCLib/inc/xmc_scu.h ****  * Clearing of the reset status information in the \a SCU_RSTSTAT register via register bit \a RSTC
 401:/opt/XMClib/XMC_Peripheral_Library_v2.1.16/XMCLib/inc/xmc_scu.h ****  * recommended to ensure a clear indication of the cause of next reset.
 402:/opt/XMClib/XMC_Peripheral_Library_v2.1.16/XMCLib/inc/xmc_scu.h ****  *
 403:/opt/XMClib/XMC_Peripheral_Library_v2.1.16/XMCLib/inc/xmc_scu.h ****  * \par<b>Related APIs:</b><BR>
 404:/opt/XMClib/XMC_Peripheral_Library_v2.1.16/XMCLib/inc/xmc_scu.h ****  * XMC_SCU_RESET_GetDeviceResetReason() \n\n\n
 405:/opt/XMClib/XMC_Peripheral_Library_v2.1.16/XMCLib/inc/xmc_scu.h ****  */
 406:/opt/XMClib/XMC_Peripheral_Library_v2.1.16/XMCLib/inc/xmc_scu.h **** __STATIC_INLINE void XMC_SCU_RESET_ClearDeviceResetReason(void)
 407:/opt/XMClib/XMC_Peripheral_Library_v2.1.16/XMCLib/inc/xmc_scu.h **** {
 408:/opt/XMClib/XMC_Peripheral_Library_v2.1.16/XMCLib/inc/xmc_scu.h ****   /* Clear RSTSTAT.RSTSTAT bitfield */
 409:/opt/XMClib/XMC_Peripheral_Library_v2.1.16/XMCLib/inc/xmc_scu.h ****   SCU_RESET->RSTCLR = (uint32_t)SCU_RESET_RSTCLR_RSCLR_Msk;
 410:/opt/XMClib/XMC_Peripheral_Library_v2.1.16/XMCLib/inc/xmc_scu.h **** }
 411:/opt/XMClib/XMC_Peripheral_Library_v2.1.16/XMCLib/inc/xmc_scu.h ****  
 412:/opt/XMClib/XMC_Peripheral_Library_v2.1.16/XMCLib/inc/xmc_scu.h **** /**
 413:/opt/XMClib/XMC_Peripheral_Library_v2.1.16/XMCLib/inc/xmc_scu.h ****  * @return uint32_t  Value of CPU clock frequency.
 414:/opt/XMClib/XMC_Peripheral_Library_v2.1.16/XMCLib/inc/xmc_scu.h ****  *
 415:/opt/XMClib/XMC_Peripheral_Library_v2.1.16/XMCLib/inc/xmc_scu.h ****  * \par<b>Description</b><br>
 416:/opt/XMClib/XMC_Peripheral_Library_v2.1.16/XMCLib/inc/xmc_scu.h ****  * Provides the vlaue of CPU clock frequency.\n\n
 417:/opt/XMClib/XMC_Peripheral_Library_v2.1.16/XMCLib/inc/xmc_scu.h ****  * The value is stored in a global variable \a \b SystemCoreClock.
 418:/opt/XMClib/XMC_Peripheral_Library_v2.1.16/XMCLib/inc/xmc_scu.h ****  * It is updated when the clock configuration is done using the SCU LLD APIs.
 419:/opt/XMClib/XMC_Peripheral_Library_v2.1.16/XMCLib/inc/xmc_scu.h ****  * The value represents the frequency of clock used for CPU operation.
 420:/opt/XMClib/XMC_Peripheral_Library_v2.1.16/XMCLib/inc/xmc_scu.h ****  * \b Range: Value is of type uint32_t, and gives the value of frequency in Hertz.
 421:/opt/XMClib/XMC_Peripheral_Library_v2.1.16/XMCLib/inc/xmc_scu.h ****  *
 422:/opt/XMClib/XMC_Peripheral_Library_v2.1.16/XMCLib/inc/xmc_scu.h ****  * \par<b>Related APIs:</b><BR>
 423:/opt/XMClib/XMC_Peripheral_Library_v2.1.16/XMCLib/inc/xmc_scu.h ****  * XMC_SCU_CLOCK_GetPeripheralClockFrequency(), XMC_SCU_CLOCK_GatePeripheralClock() \n\n\n
 424:/opt/XMClib/XMC_Peripheral_Library_v2.1.16/XMCLib/inc/xmc_scu.h ****  */
 425:/opt/XMClib/XMC_Peripheral_Library_v2.1.16/XMCLib/inc/xmc_scu.h **** __STATIC_INLINE uint32_t XMC_SCU_CLOCK_GetCpuClockFrequency(void)
 426:/opt/XMClib/XMC_Peripheral_Library_v2.1.16/XMCLib/inc/xmc_scu.h **** {
 427:/opt/XMClib/XMC_Peripheral_Library_v2.1.16/XMCLib/inc/xmc_scu.h ****   return SystemCoreClock;
 428:/opt/XMClib/XMC_Peripheral_Library_v2.1.16/XMCLib/inc/xmc_scu.h **** }
 429:/opt/XMClib/XMC_Peripheral_Library_v2.1.16/XMCLib/inc/xmc_scu.h **** 
 430:/opt/XMClib/XMC_Peripheral_Library_v2.1.16/XMCLib/inc/xmc_scu.h **** /**
 431:/opt/XMClib/XMC_Peripheral_Library_v2.1.16/XMCLib/inc/xmc_scu.h ****  * @return uint32_t  Value of peripheral clock frequency in Hertz.
 432:/opt/XMClib/XMC_Peripheral_Library_v2.1.16/XMCLib/inc/xmc_scu.h ****  *
 433:/opt/XMClib/XMC_Peripheral_Library_v2.1.16/XMCLib/inc/xmc_scu.h ****  * \par<b>Description</b><br>
 434:/opt/XMClib/XMC_Peripheral_Library_v2.1.16/XMCLib/inc/xmc_scu.h ****  * Provides the vlaue of clock frequency at which the peripherals are working.\n\n
 435:/opt/XMClib/XMC_Peripheral_Library_v2.1.16/XMCLib/inc/xmc_scu.h ****  * The value is derived from the CPU frequency. \b Range: Value is of type uint32_t. It is represen
 436:/opt/XMClib/XMC_Peripheral_Library_v2.1.16/XMCLib/inc/xmc_scu.h ****  * \par<b>Related APIs:</b><BR>
 437:/opt/XMClib/XMC_Peripheral_Library_v2.1.16/XMCLib/inc/xmc_scu.h ****  * XMC_SCU_CLOCK_GetCpuClockFrequency(),XMC_SCU_CLOCK_GatePeripheralClock() \n\n\n
 438:/opt/XMClib/XMC_Peripheral_Library_v2.1.16/XMCLib/inc/xmc_scu.h ****  */
 439:/opt/XMClib/XMC_Peripheral_Library_v2.1.16/XMCLib/inc/xmc_scu.h **** uint32_t XMC_SCU_CLOCK_GetPeripheralClockFrequency(void); 
 440:/opt/XMClib/XMC_Peripheral_Library_v2.1.16/XMCLib/inc/xmc_scu.h **** 
 441:/opt/XMClib/XMC_Peripheral_Library_v2.1.16/XMCLib/inc/xmc_scu.h **** #if(UC_SERIES != XMC45)
 442:/opt/XMClib/XMC_Peripheral_Library_v2.1.16/XMCLib/inc/xmc_scu.h ****  
 443:/opt/XMClib/XMC_Peripheral_Library_v2.1.16/XMCLib/inc/xmc_scu.h **** /**
 444:/opt/XMClib/XMC_Peripheral_Library_v2.1.16/XMCLib/inc/xmc_scu.h ****  *
 445:/opt/XMClib/XMC_Peripheral_Library_v2.1.16/XMCLib/inc/xmc_scu.h ****  * @param  peripheral The peripheral for which the clock has to be gated. \b Range: Use type @ref X
 446:/opt/XMClib/XMC_Peripheral_Library_v2.1.16/XMCLib/inc/xmc_scu.h ****  *                    to identify the peripheral clock to be gated.
 447:/opt/XMClib/XMC_Peripheral_Library_v2.1.16/XMCLib/inc/xmc_scu.h ****  *
 448:/opt/XMClib/XMC_Peripheral_Library_v2.1.16/XMCLib/inc/xmc_scu.h ****  * @return None
 449:/opt/XMClib/XMC_Peripheral_Library_v2.1.16/XMCLib/inc/xmc_scu.h ****  *
 450:/opt/XMClib/XMC_Peripheral_Library_v2.1.16/XMCLib/inc/xmc_scu.h ****  * \par<b>Description</b><br>
 451:/opt/XMClib/XMC_Peripheral_Library_v2.1.16/XMCLib/inc/xmc_scu.h ****  * Blocks the supply of clock to the selected peripheral.\n\n
 452:/opt/XMClib/XMC_Peripheral_Library_v2.1.16/XMCLib/inc/xmc_scu.h ****  * Clock gating helps in reducing the power consumption. User can selectively gate the clocks of un
 453:/opt/XMClib/XMC_Peripheral_Library_v2.1.16/XMCLib/inc/xmc_scu.h ****  * \if XMC1
 454:/opt/XMClib/XMC_Peripheral_Library_v2.1.16/XMCLib/inc/xmc_scu.h ****  * fPCLK is the source of clock to various peripherals. Some peripherals support clock gate. Such a
 455:/opt/XMClib/XMC_Peripheral_Library_v2.1.16/XMCLib/inc/xmc_scu.h ****  * the clock supply for the selected peripheral.
 456:/opt/XMClib/XMC_Peripheral_Library_v2.1.16/XMCLib/inc/xmc_scu.h ****  * Software can request for individual gating of such peripheral clocks by enabling the \a SCU_CGAT
 457:/opt/XMClib/XMC_Peripheral_Library_v2.1.16/XMCLib/inc/xmc_scu.h ****  * register bit field. Every bit in \a SCU_CGATSET0 register is protected by the bit protection sch
 458:/opt/XMClib/XMC_Peripheral_Library_v2.1.16/XMCLib/inc/xmc_scu.h ****  * bit fields are handled internally.
 459:/opt/XMClib/XMC_Peripheral_Library_v2.1.16/XMCLib/inc/xmc_scu.h ****  * \endif
 460:/opt/XMClib/XMC_Peripheral_Library_v2.1.16/XMCLib/inc/xmc_scu.h ****  * \if XMC4
 461:/opt/XMClib/XMC_Peripheral_Library_v2.1.16/XMCLib/inc/xmc_scu.h ****  * fPERI is the source of clock to various peripherals. Some peripherals support clock gate. Such a
 462:/opt/XMClib/XMC_Peripheral_Library_v2.1.16/XMCLib/inc/xmc_scu.h ****  * the clock supply for the selected peripheral.
 463:/opt/XMClib/XMC_Peripheral_Library_v2.1.16/XMCLib/inc/xmc_scu.h ****  * Software can request for individual gating of such peripheral clocks by enabling one of the \a
 464:/opt/XMClib/XMC_Peripheral_Library_v2.1.16/XMCLib/inc/xmc_scu.h ****  * SCU_CGATSET0, \a SCU_CGATSET1 or \a SCU_CGATSET2 register bitfields.
 465:/opt/XMClib/XMC_Peripheral_Library_v2.1.16/XMCLib/inc/xmc_scu.h ****  * 
 466:/opt/XMClib/XMC_Peripheral_Library_v2.1.16/XMCLib/inc/xmc_scu.h ****  * \endif
 467:/opt/XMClib/XMC_Peripheral_Library_v2.1.16/XMCLib/inc/xmc_scu.h ****  * Note: Clock gating shall not be activated unless the module is in reset state. So use \a
 468:/opt/XMClib/XMC_Peripheral_Library_v2.1.16/XMCLib/inc/xmc_scu.h ****  * XMC_SCU_CLOCK_IsPeripheralClockGated() API before enabling the gating of any peripheral.
 469:/opt/XMClib/XMC_Peripheral_Library_v2.1.16/XMCLib/inc/xmc_scu.h ****  * \par<b>Related APIs:</b><BR>
 470:/opt/XMClib/XMC_Peripheral_Library_v2.1.16/XMCLib/inc/xmc_scu.h ****  * XMC_SCU_CLOCK_IsPeripheralClockGated(), XMC_SCU_CLOCK_UngatePeripheralClock() \n\n\n
 471:/opt/XMClib/XMC_Peripheral_Library_v2.1.16/XMCLib/inc/xmc_scu.h ****  */
 472:/opt/XMClib/XMC_Peripheral_Library_v2.1.16/XMCLib/inc/xmc_scu.h **** void XMC_SCU_CLOCK_GatePeripheralClock(const XMC_SCU_PERIPHERAL_CLOCK_t peripheral);
 473:/opt/XMClib/XMC_Peripheral_Library_v2.1.16/XMCLib/inc/xmc_scu.h ****  
 474:/opt/XMClib/XMC_Peripheral_Library_v2.1.16/XMCLib/inc/xmc_scu.h **** /**
 475:/opt/XMClib/XMC_Peripheral_Library_v2.1.16/XMCLib/inc/xmc_scu.h ****  *
 476:/opt/XMClib/XMC_Peripheral_Library_v2.1.16/XMCLib/inc/xmc_scu.h ****  * @param  peripheral  The peripheral for which the clock has to be ungated. \b Range: Use type @re
 477:/opt/XMClib/XMC_Peripheral_Library_v2.1.16/XMCLib/inc/xmc_scu.h ****  *                    to identify the peripheral.
 478:/opt/XMClib/XMC_Peripheral_Library_v2.1.16/XMCLib/inc/xmc_scu.h ****  *
 479:/opt/XMClib/XMC_Peripheral_Library_v2.1.16/XMCLib/inc/xmc_scu.h ****  * @return None
 480:/opt/XMClib/XMC_Peripheral_Library_v2.1.16/XMCLib/inc/xmc_scu.h ****  *
 481:/opt/XMClib/XMC_Peripheral_Library_v2.1.16/XMCLib/inc/xmc_scu.h ****  * \par<b>Description</b><br>
 482:/opt/XMClib/XMC_Peripheral_Library_v2.1.16/XMCLib/inc/xmc_scu.h ****  * Enables the supply of clock to the selected peripheral.\n\n
 483:/opt/XMClib/XMC_Peripheral_Library_v2.1.16/XMCLib/inc/xmc_scu.h ****  * By default when the device powers on, the peripheral clock will be gated for the 
 484:/opt/XMClib/XMC_Peripheral_Library_v2.1.16/XMCLib/inc/xmc_scu.h ****  * peripherals that support clock gating.
 485:/opt/XMClib/XMC_Peripheral_Library_v2.1.16/XMCLib/inc/xmc_scu.h ****  * The peripheral clock should be enabled before using it for any functionality.
 486:/opt/XMClib/XMC_Peripheral_Library_v2.1.16/XMCLib/inc/xmc_scu.h ****  * \if XMC1
 487:/opt/XMClib/XMC_Peripheral_Library_v2.1.16/XMCLib/inc/xmc_scu.h ****  * fPCLK is the source of clock to various peripherals. Some peripherals support clock gate.
 488:/opt/XMClib/XMC_Peripheral_Library_v2.1.16/XMCLib/inc/xmc_scu.h ****  * Software can request for individual ungating of such peripheral clocks by setting respective bit
 489:/opt/XMClib/XMC_Peripheral_Library_v2.1.16/XMCLib/inc/xmc_scu.h ****  * in the \a SCU_CGATCLR0 register.
 490:/opt/XMClib/XMC_Peripheral_Library_v2.1.16/XMCLib/inc/xmc_scu.h ****  * \endif
 491:/opt/XMClib/XMC_Peripheral_Library_v2.1.16/XMCLib/inc/xmc_scu.h ****  * \if XMC4
 492:/opt/XMClib/XMC_Peripheral_Library_v2.1.16/XMCLib/inc/xmc_scu.h ****  * fPERI is the source of clock to various peripherals. Some peripherals support clock gate.
 493:/opt/XMClib/XMC_Peripheral_Library_v2.1.16/XMCLib/inc/xmc_scu.h ****  * Software can request for individual ungating of such peripheral clocks by setting the respective
 494:/opt/XMClib/XMC_Peripheral_Library_v2.1.16/XMCLib/inc/xmc_scu.h ****  * SCU_CGATCLR0, \a SCU_CGATCLR1 or \a SCU_CGATCLR2 registers.
 495:/opt/XMClib/XMC_Peripheral_Library_v2.1.16/XMCLib/inc/xmc_scu.h ****  * \endif
 496:/opt/XMClib/XMC_Peripheral_Library_v2.1.16/XMCLib/inc/xmc_scu.h ****  *
 497:/opt/XMClib/XMC_Peripheral_Library_v2.1.16/XMCLib/inc/xmc_scu.h ****  * \par<b>Related APIs:</b><BR>
 498:/opt/XMClib/XMC_Peripheral_Library_v2.1.16/XMCLib/inc/xmc_scu.h ****  * XMC_SCU_CLOCK_IsPeripheralClockGated(), XMC_SCU_CLOCK_GatePeripheralClock() \n\n\n
 499:/opt/XMClib/XMC_Peripheral_Library_v2.1.16/XMCLib/inc/xmc_scu.h ****  */
 500:/opt/XMClib/XMC_Peripheral_Library_v2.1.16/XMCLib/inc/xmc_scu.h **** void XMC_SCU_CLOCK_UngatePeripheralClock(const XMC_SCU_PERIPHERAL_CLOCK_t peripheral);
 501:/opt/XMClib/XMC_Peripheral_Library_v2.1.16/XMCLib/inc/xmc_scu.h **** 
 502:/opt/XMClib/XMC_Peripheral_Library_v2.1.16/XMCLib/inc/xmc_scu.h **** /**
 503:/opt/XMClib/XMC_Peripheral_Library_v2.1.16/XMCLib/inc/xmc_scu.h ****  *
 504:/opt/XMClib/XMC_Peripheral_Library_v2.1.16/XMCLib/inc/xmc_scu.h ****  * @param  peripheral  The peripheral for which the check for clock gating has to be done. 
 505:/opt/XMClib/XMC_Peripheral_Library_v2.1.16/XMCLib/inc/xmc_scu.h ****  *                    \b Range: Use type @ref XMC_SCU_PERIPHERAL_CLOCK_t to identify the peripheral
 506:/opt/XMClib/XMC_Peripheral_Library_v2.1.16/XMCLib/inc/xmc_scu.h ****  *
 507:/opt/XMClib/XMC_Peripheral_Library_v2.1.16/XMCLib/inc/xmc_scu.h ****  * @return bool Status of the peripheral clock gating. \b Range: true if the peripheral clock is ga
 508:/opt/XMClib/XMC_Peripheral_Library_v2.1.16/XMCLib/inc/xmc_scu.h ****  *              false if the peripheral clock ungated(gate de-asserted).
 509:/opt/XMClib/XMC_Peripheral_Library_v2.1.16/XMCLib/inc/xmc_scu.h ****  *
 510:/opt/XMClib/XMC_Peripheral_Library_v2.1.16/XMCLib/inc/xmc_scu.h ****  * \par<b>Description</b><br>
 511:/opt/XMClib/XMC_Peripheral_Library_v2.1.16/XMCLib/inc/xmc_scu.h ****  * Gives the status of peripheral clock gating.\n\n
 512:/opt/XMClib/XMC_Peripheral_Library_v2.1.16/XMCLib/inc/xmc_scu.h ****  * \if XMC1
 513:/opt/XMClib/XMC_Peripheral_Library_v2.1.16/XMCLib/inc/xmc_scu.h ****  * Checks the status of peripheral clock gating using the register CGATSTAT0.
 514:/opt/XMClib/XMC_Peripheral_Library_v2.1.16/XMCLib/inc/xmc_scu.h ****  * \endif
 515:/opt/XMClib/XMC_Peripheral_Library_v2.1.16/XMCLib/inc/xmc_scu.h ****  * \if XMC4
 516:/opt/XMClib/XMC_Peripheral_Library_v2.1.16/XMCLib/inc/xmc_scu.h ****  * Checks the status of peripheral clock gating using one of CGATSTAT0, CGATSTAT1 or CGATSTAT2 regi
 517:/opt/XMClib/XMC_Peripheral_Library_v2.1.16/XMCLib/inc/xmc_scu.h ****  * \endif
 518:/opt/XMClib/XMC_Peripheral_Library_v2.1.16/XMCLib/inc/xmc_scu.h ****  * It is recommended to use this API before
 519:/opt/XMClib/XMC_Peripheral_Library_v2.1.16/XMCLib/inc/xmc_scu.h ****  * enabling the gating of any peripherals through \a XMC_SCU_CLOCK_GatePeripheralClock() API.
 520:/opt/XMClib/XMC_Peripheral_Library_v2.1.16/XMCLib/inc/xmc_scu.h ****  *
 521:/opt/XMClib/XMC_Peripheral_Library_v2.1.16/XMCLib/inc/xmc_scu.h ****  * \par<b>Related APIs:</b><BR>
 522:/opt/XMClib/XMC_Peripheral_Library_v2.1.16/XMCLib/inc/xmc_scu.h ****  * XMC_SCU_CLOCK_UngatePeripheralClock(), XMC_SCU_CLOCK_GatePeripheralClock() \n\n\n
 523:/opt/XMClib/XMC_Peripheral_Library_v2.1.16/XMCLib/inc/xmc_scu.h ****  */
 524:/opt/XMClib/XMC_Peripheral_Library_v2.1.16/XMCLib/inc/xmc_scu.h **** bool XMC_SCU_CLOCK_IsPeripheralClockGated(const XMC_SCU_PERIPHERAL_CLOCK_t peripheral);
 525:/opt/XMClib/XMC_Peripheral_Library_v2.1.16/XMCLib/inc/xmc_scu.h **** #endif
 526:/opt/XMClib/XMC_Peripheral_Library_v2.1.16/XMCLib/inc/xmc_scu.h **** 
 527:/opt/XMClib/XMC_Peripheral_Library_v2.1.16/XMCLib/inc/xmc_scu.h **** 
 528:/opt/XMClib/XMC_Peripheral_Library_v2.1.16/XMCLib/inc/xmc_scu.h **** /**
 529:/opt/XMClib/XMC_Peripheral_Library_v2.1.16/XMCLib/inc/xmc_scu.h ****  * @return  uint32_t  Status of the register mirror update.\n
 530:/opt/XMClib/XMC_Peripheral_Library_v2.1.16/XMCLib/inc/xmc_scu.h ****  *                    \b Range: Use the bit mask of the SCU_GENERAL_MIRRSTS register for the mirror
 531:/opt/XMClib/XMC_Peripheral_Library_v2.1.16/XMCLib/inc/xmc_scu.h ****  *                    interest. e.g.: SCU_GENERAL_MIRRSTS_RTC_CTR_Msk. Multiple update events can b
 532:/opt/XMClib/XMC_Peripheral_Library_v2.1.16/XMCLib/inc/xmc_scu.h ****  *                    using \a OR operation.
 533:/opt/XMClib/XMC_Peripheral_Library_v2.1.16/XMCLib/inc/xmc_scu.h ****  *
 534:/opt/XMClib/XMC_Peripheral_Library_v2.1.16/XMCLib/inc/xmc_scu.h ****  * \par<b>Description</b><br>
 535:/opt/XMClib/XMC_Peripheral_Library_v2.1.16/XMCLib/inc/xmc_scu.h ****  * Provides the status of hibernate domain register update, when the respective mirror registers ar
 536:/opt/XMClib/XMC_Peripheral_Library_v2.1.16/XMCLib/inc/xmc_scu.h ****  * The hibernate domain is connected to the core domain via SPI serial communication. MIRRSTS is a 
 537:/opt/XMClib/XMC_Peripheral_Library_v2.1.16/XMCLib/inc/xmc_scu.h ****  * representing the communication of changed value of a mirror register to its corresponding regist
 538:/opt/XMClib/XMC_Peripheral_Library_v2.1.16/XMCLib/inc/xmc_scu.h ****  * hibernate domain. The bit fields of the register indicate
 539:/opt/XMClib/XMC_Peripheral_Library_v2.1.16/XMCLib/inc/xmc_scu.h ****  * that a corresponding register of the hibernate domain is ready to accept a write or that the com
 540:/opt/XMClib/XMC_Peripheral_Library_v2.1.16/XMCLib/inc/xmc_scu.h ****  * is busy with executing the previous operation.\n
 541:/opt/XMClib/XMC_Peripheral_Library_v2.1.16/XMCLib/inc/xmc_scu.h ****  * Note: There is no hibernate domain in XMC1x devices. This register is retained for legacy purpos
 542:/opt/XMClib/XMC_Peripheral_Library_v2.1.16/XMCLib/inc/xmc_scu.h ****  */
 543:/opt/XMClib/XMC_Peripheral_Library_v2.1.16/XMCLib/inc/xmc_scu.h **** __STATIC_INLINE uint32_t XMC_SCU_GetMirrorStatus(void)
 544:/opt/XMClib/XMC_Peripheral_Library_v2.1.16/XMCLib/inc/xmc_scu.h **** {
  27              		.loc 1 544 1
  28              		.cfi_startproc
  29              		@ args = 0, pretend = 0, frame = 0
  30              		@ frame_needed = 1, uses_anonymous_args = 0
  31              		@ link register save eliminated.
  32 0000 80B4     		push	{r7}
  33              	.LCFI0:
  34              		.cfi_def_cfa_offset 4
  35              		.cfi_offset 7, -4
  36 0002 00AF     		add	r7, sp, #0
  37              	.LCFI1:
  38              		.cfi_def_cfa_register 7
 545:/opt/XMClib/XMC_Peripheral_Library_v2.1.16/XMCLib/inc/xmc_scu.h ****   return(SCU_GENERAL->MIRRSTS);
  39              		.loc 1 545 21
  40 0004 034B     		ldr	r3, .L3
  41 0006 D3F8C430 		ldr	r3, [r3, #196]
 546:/opt/XMClib/XMC_Peripheral_Library_v2.1.16/XMCLib/inc/xmc_scu.h **** }
  42              		.loc 1 546 1
  43 000a 1846     		mov	r0, r3
  44 000c BD46     		mov	sp, r7
  45              	.LCFI2:
  46              		.cfi_def_cfa_register 13
  47              		@ sp needed
  48 000e 5DF8047B 		ldr	r7, [sp], #4
  49              	.LCFI3:
  50              		.cfi_restore 7
  51              		.cfi_def_cfa_offset 0
  52 0012 7047     		bx	lr
  53              	.L4:
  54              		.align	2
  55              	.L3:
  56 0014 00400050 		.word	1342193664
  57              		.cfi_endproc
  58              	.LFE161:
  60              		.section	.text.XMC_RTC_Start,"ax",%progbits
  61              		.align	1
  62              		.global	XMC_RTC_Start
  63              		.syntax unified
  64              		.thumb
  65              		.thumb_func
  67              	XMC_RTC_Start:
  68              	.LFB164:
  69              		.file 2 "/opt/XMClib/XMC_Peripheral_Library_v2.1.16/XMCLib/src/xmc_rtc.c"
   1:/opt/XMClib/XMC_Peripheral_Library_v2.1.16/XMCLib/src/xmc_rtc.c **** /**
   2:/opt/XMClib/XMC_Peripheral_Library_v2.1.16/XMCLib/src/xmc_rtc.c ****  * @file xmc_rtc.c
   3:/opt/XMClib/XMC_Peripheral_Library_v2.1.16/XMCLib/src/xmc_rtc.c ****  * @date 2015-05-19
   4:/opt/XMClib/XMC_Peripheral_Library_v2.1.16/XMCLib/src/xmc_rtc.c ****  *
   5:/opt/XMClib/XMC_Peripheral_Library_v2.1.16/XMCLib/src/xmc_rtc.c ****  * @cond
   6:/opt/XMClib/XMC_Peripheral_Library_v2.1.16/XMCLib/src/xmc_rtc.c ****  **************************************************************************************************
   7:/opt/XMClib/XMC_Peripheral_Library_v2.1.16/XMCLib/src/xmc_rtc.c ****  * XMClib v2.1.16 - XMC Peripheral Driver Library 
   8:/opt/XMClib/XMC_Peripheral_Library_v2.1.16/XMCLib/src/xmc_rtc.c ****  *
   9:/opt/XMClib/XMC_Peripheral_Library_v2.1.16/XMCLib/src/xmc_rtc.c ****  * Copyright (c) 2015-2017, Infineon Technologies AG
  10:/opt/XMClib/XMC_Peripheral_Library_v2.1.16/XMCLib/src/xmc_rtc.c ****  * All rights reserved.                        
  11:/opt/XMClib/XMC_Peripheral_Library_v2.1.16/XMCLib/src/xmc_rtc.c ****  *                                             
  12:/opt/XMClib/XMC_Peripheral_Library_v2.1.16/XMCLib/src/xmc_rtc.c ****  * Redistribution and use in source and binary forms, with or without modification,are permitted pr
  13:/opt/XMClib/XMC_Peripheral_Library_v2.1.16/XMCLib/src/xmc_rtc.c ****  * following conditions are met:   
  14:/opt/XMClib/XMC_Peripheral_Library_v2.1.16/XMCLib/src/xmc_rtc.c ****  *                                                                              
  15:/opt/XMClib/XMC_Peripheral_Library_v2.1.16/XMCLib/src/xmc_rtc.c ****  * Redistributions of source code must retain the above copyright notice, this list of conditions a
  16:/opt/XMClib/XMC_Peripheral_Library_v2.1.16/XMCLib/src/xmc_rtc.c ****  * disclaimer.                        
  17:/opt/XMClib/XMC_Peripheral_Library_v2.1.16/XMCLib/src/xmc_rtc.c ****  * 
  18:/opt/XMClib/XMC_Peripheral_Library_v2.1.16/XMCLib/src/xmc_rtc.c ****  * Redistributions in binary form must reproduce the above copyright notice, this list of condition
  19:/opt/XMClib/XMC_Peripheral_Library_v2.1.16/XMCLib/src/xmc_rtc.c ****  * disclaimer in the documentation and/or other materials provided with the distribution.          
  20:/opt/XMClib/XMC_Peripheral_Library_v2.1.16/XMCLib/src/xmc_rtc.c ****  * 
  21:/opt/XMClib/XMC_Peripheral_Library_v2.1.16/XMCLib/src/xmc_rtc.c ****  * Neither the name of the copyright holders nor the names of its contributors may be used to endor
  22:/opt/XMClib/XMC_Peripheral_Library_v2.1.16/XMCLib/src/xmc_rtc.c ****  * products derived from this software without specific prior written permission.                  
  23:/opt/XMClib/XMC_Peripheral_Library_v2.1.16/XMCLib/src/xmc_rtc.c ****  *                                                                              
  24:/opt/XMClib/XMC_Peripheral_Library_v2.1.16/XMCLib/src/xmc_rtc.c ****  * THIS SOFTWARE IS PROVIDED BY THE COPYRIGHT HOLDERS AND CONTRIBUTORS "AS IS" AND ANY EXPRESS OR I
  25:/opt/XMClib/XMC_Peripheral_Library_v2.1.16/XMCLib/src/xmc_rtc.c ****  * INCLUDING, BUT NOT LIMITED TO, THE IMPLIED WARRANTIES OF MERCHANTABILITY AND FITNESS FOR A PARTI
  26:/opt/XMClib/XMC_Peripheral_Library_v2.1.16/XMCLib/src/xmc_rtc.c ****  * DISCLAIMED. IN NO EVENT SHALL THE COPYRIGHT HOLDER OR CONTRIBUTORS BE LIABLE  FOR ANY DIRECT, IN
  27:/opt/XMClib/XMC_Peripheral_Library_v2.1.16/XMCLib/src/xmc_rtc.c ****  * SPECIAL, EXEMPLARY, OR CONSEQUENTIAL DAMAGES (INCLUDING, BUT NOT LIMITED TO, PROCUREMENT OF SUBS
  28:/opt/XMClib/XMC_Peripheral_Library_v2.1.16/XMCLib/src/xmc_rtc.c ****  * SERVICES; LOSS OF USE, DATA, OR PROFITS; OR BUSINESS INTERRUPTION) HOWEVER CAUSED AND ON ANY THE
  29:/opt/XMClib/XMC_Peripheral_Library_v2.1.16/XMCLib/src/xmc_rtc.c ****  * WHETHER IN CONTRACT, STRICT LIABILITY,OR TORT (INCLUDING NEGLIGENCE OR OTHERWISE) ARISING IN ANY
  30:/opt/XMClib/XMC_Peripheral_Library_v2.1.16/XMCLib/src/xmc_rtc.c ****  * OF THIS SOFTWARE, EVEN IF ADVISED OF THE POSSIBILITY OF SUCH DAMAGE.                            
  31:/opt/XMClib/XMC_Peripheral_Library_v2.1.16/XMCLib/src/xmc_rtc.c ****  *                                                                              
  32:/opt/XMClib/XMC_Peripheral_Library_v2.1.16/XMCLib/src/xmc_rtc.c ****  * To improve the quality of the software, users are encouraged to share modifications, enhancement
  33:/opt/XMClib/XMC_Peripheral_Library_v2.1.16/XMCLib/src/xmc_rtc.c ****  * Infineon Technologies AG dave@infineon.com).                                                    
  34:/opt/XMClib/XMC_Peripheral_Library_v2.1.16/XMCLib/src/xmc_rtc.c ****  **************************************************************************************************
  35:/opt/XMClib/XMC_Peripheral_Library_v2.1.16/XMCLib/src/xmc_rtc.c ****  *
  36:/opt/XMClib/XMC_Peripheral_Library_v2.1.16/XMCLib/src/xmc_rtc.c ****  * Change History
  37:/opt/XMClib/XMC_Peripheral_Library_v2.1.16/XMCLib/src/xmc_rtc.c ****  * --------------
  38:/opt/XMClib/XMC_Peripheral_Library_v2.1.16/XMCLib/src/xmc_rtc.c ****  *
  39:/opt/XMClib/XMC_Peripheral_Library_v2.1.16/XMCLib/src/xmc_rtc.c ****  * 2015-02-20:
  40:/opt/XMClib/XMC_Peripheral_Library_v2.1.16/XMCLib/src/xmc_rtc.c ****  *     - Initial <br>
  41:/opt/XMClib/XMC_Peripheral_Library_v2.1.16/XMCLib/src/xmc_rtc.c ****  *      
  42:/opt/XMClib/XMC_Peripheral_Library_v2.1.16/XMCLib/src/xmc_rtc.c ****  * 2015-06-20:
  43:/opt/XMClib/XMC_Peripheral_Library_v2.1.16/XMCLib/src/xmc_rtc.c ****  *     - Removed GetDriverVersion API
  44:/opt/XMClib/XMC_Peripheral_Library_v2.1.16/XMCLib/src/xmc_rtc.c ****  * 
  45:/opt/XMClib/XMC_Peripheral_Library_v2.1.16/XMCLib/src/xmc_rtc.c ****  * 2016-05-19:
  46:/opt/XMClib/XMC_Peripheral_Library_v2.1.16/XMCLib/src/xmc_rtc.c ****  *     - Added XMC_RTC_SetTimeStdFormat() and XMC_RTC_SetAlarmStdFormat()
  47:/opt/XMClib/XMC_Peripheral_Library_v2.1.16/XMCLib/src/xmc_rtc.c ****  *
  48:/opt/XMClib/XMC_Peripheral_Library_v2.1.16/XMCLib/src/xmc_rtc.c ****  * @endcond 
  49:/opt/XMClib/XMC_Peripheral_Library_v2.1.16/XMCLib/src/xmc_rtc.c ****  *
  50:/opt/XMClib/XMC_Peripheral_Library_v2.1.16/XMCLib/src/xmc_rtc.c ****  */
  51:/opt/XMClib/XMC_Peripheral_Library_v2.1.16/XMCLib/src/xmc_rtc.c **** 
  52:/opt/XMClib/XMC_Peripheral_Library_v2.1.16/XMCLib/src/xmc_rtc.c **** /**
  53:/opt/XMClib/XMC_Peripheral_Library_v2.1.16/XMCLib/src/xmc_rtc.c ****  *
  54:/opt/XMClib/XMC_Peripheral_Library_v2.1.16/XMCLib/src/xmc_rtc.c ****  * @brief RTC driver for XMC microcontroller family.
  55:/opt/XMClib/XMC_Peripheral_Library_v2.1.16/XMCLib/src/xmc_rtc.c ****  *
  56:/opt/XMClib/XMC_Peripheral_Library_v2.1.16/XMCLib/src/xmc_rtc.c ****  */
  57:/opt/XMClib/XMC_Peripheral_Library_v2.1.16/XMCLib/src/xmc_rtc.c **** 
  58:/opt/XMClib/XMC_Peripheral_Library_v2.1.16/XMCLib/src/xmc_rtc.c **** /**************************************************************************************************
  59:/opt/XMClib/XMC_Peripheral_Library_v2.1.16/XMCLib/src/xmc_rtc.c ****  * HEADER FILES
  60:/opt/XMClib/XMC_Peripheral_Library_v2.1.16/XMCLib/src/xmc_rtc.c ****  **************************************************************************************************
  61:/opt/XMClib/XMC_Peripheral_Library_v2.1.16/XMCLib/src/xmc_rtc.c ****  
  62:/opt/XMClib/XMC_Peripheral_Library_v2.1.16/XMCLib/src/xmc_rtc.c **** #include "xmc_scu.h"
  63:/opt/XMClib/XMC_Peripheral_Library_v2.1.16/XMCLib/src/xmc_rtc.c **** #include "xmc_rtc.h"
  64:/opt/XMClib/XMC_Peripheral_Library_v2.1.16/XMCLib/src/xmc_rtc.c **** 
  65:/opt/XMClib/XMC_Peripheral_Library_v2.1.16/XMCLib/src/xmc_rtc.c **** /**************************************************************************************************
  66:/opt/XMClib/XMC_Peripheral_Library_v2.1.16/XMCLib/src/xmc_rtc.c ****  * MACROS
  67:/opt/XMClib/XMC_Peripheral_Library_v2.1.16/XMCLib/src/xmc_rtc.c ****  **************************************************************************************************
  68:/opt/XMClib/XMC_Peripheral_Library_v2.1.16/XMCLib/src/xmc_rtc.c **** 
  69:/opt/XMClib/XMC_Peripheral_Library_v2.1.16/XMCLib/src/xmc_rtc.c **** #define XMC_RTC_MAXSECONDS  (59U)   /**< RTC time : Maximum seconds */
  70:/opt/XMClib/XMC_Peripheral_Library_v2.1.16/XMCLib/src/xmc_rtc.c **** #define XMC_RTC_MAXMINUTES  (59U)   /**< RTC time : Maximum minutes */
  71:/opt/XMClib/XMC_Peripheral_Library_v2.1.16/XMCLib/src/xmc_rtc.c **** #define XMC_RTC_MAXHOURS    (23U)   /**< RTC time : Maximum hours */
  72:/opt/XMClib/XMC_Peripheral_Library_v2.1.16/XMCLib/src/xmc_rtc.c **** #define XMC_RTC_MAXDAYS     (31U)   /**< RTC time : Maximum days */
  73:/opt/XMClib/XMC_Peripheral_Library_v2.1.16/XMCLib/src/xmc_rtc.c **** #define XMC_RTC_MAXDAYSOFWEEK  (7U) /**< RTC time : Maximum days of week */
  74:/opt/XMClib/XMC_Peripheral_Library_v2.1.16/XMCLib/src/xmc_rtc.c **** #define XMC_RTC_MAXMONTH  (12U)     /**< RTC time : Maximum month */
  75:/opt/XMClib/XMC_Peripheral_Library_v2.1.16/XMCLib/src/xmc_rtc.c **** #define XMC_RTC_MAXYEAR  (0xFFFFU)  /**< RTC time : Maximum year */
  76:/opt/XMClib/XMC_Peripheral_Library_v2.1.16/XMCLib/src/xmc_rtc.c **** #define XMC_RTC_MAXPRESCALER  (0xFFFFU)  /**< RTC time : Maximum prescaler */
  77:/opt/XMClib/XMC_Peripheral_Library_v2.1.16/XMCLib/src/xmc_rtc.c **** #define XMC_RTC_YEAR_OFFSET (1900U)      /**< RTC year offset : Year offset */
  78:/opt/XMClib/XMC_Peripheral_Library_v2.1.16/XMCLib/src/xmc_rtc.c **** 
  79:/opt/XMClib/XMC_Peripheral_Library_v2.1.16/XMCLib/src/xmc_rtc.c **** #if (UC_FAMILY == XMC4)
  80:/opt/XMClib/XMC_Peripheral_Library_v2.1.16/XMCLib/src/xmc_rtc.c **** #define XMC_RTC_INIT_SEQUENCE  (1U)
  81:/opt/XMClib/XMC_Peripheral_Library_v2.1.16/XMCLib/src/xmc_rtc.c **** #endif
  82:/opt/XMClib/XMC_Peripheral_Library_v2.1.16/XMCLib/src/xmc_rtc.c **** #if (UC_FAMILY == XMC1)
  83:/opt/XMClib/XMC_Peripheral_Library_v2.1.16/XMCLib/src/xmc_rtc.c **** #define XMC_RTC_INIT_SEQUENCE  (0U)
  84:/opt/XMClib/XMC_Peripheral_Library_v2.1.16/XMCLib/src/xmc_rtc.c **** #endif
  85:/opt/XMClib/XMC_Peripheral_Library_v2.1.16/XMCLib/src/xmc_rtc.c **** 
  86:/opt/XMClib/XMC_Peripheral_Library_v2.1.16/XMCLib/src/xmc_rtc.c **** /**************************************************************************************************
  87:/opt/XMClib/XMC_Peripheral_Library_v2.1.16/XMCLib/src/xmc_rtc.c ****  * API IMPLEMENTATION
  88:/opt/XMClib/XMC_Peripheral_Library_v2.1.16/XMCLib/src/xmc_rtc.c ****  **************************************************************************************************
  89:/opt/XMClib/XMC_Peripheral_Library_v2.1.16/XMCLib/src/xmc_rtc.c **** 
  90:/opt/XMClib/XMC_Peripheral_Library_v2.1.16/XMCLib/src/xmc_rtc.c **** /*
  91:/opt/XMClib/XMC_Peripheral_Library_v2.1.16/XMCLib/src/xmc_rtc.c ****  * Enables RTC peripheral to start counting time
  92:/opt/XMClib/XMC_Peripheral_Library_v2.1.16/XMCLib/src/xmc_rtc.c ****  */
  93:/opt/XMClib/XMC_Peripheral_Library_v2.1.16/XMCLib/src/xmc_rtc.c **** void XMC_RTC_Start(void)
  94:/opt/XMClib/XMC_Peripheral_Library_v2.1.16/XMCLib/src/xmc_rtc.c **** {
  70              		.loc 2 94 1
  71              		.cfi_startproc
  72              		@ args = 0, pretend = 0, frame = 0
  73              		@ frame_needed = 1, uses_anonymous_args = 0
  74 0000 80B5     		push	{r7, lr}
  75              	.LCFI4:
  76              		.cfi_def_cfa_offset 8
  77              		.cfi_offset 7, -8
  78              		.cfi_offset 14, -4
  79 0002 00AF     		add	r7, sp, #0
  80              	.LCFI5:
  81              		.cfi_def_cfa_register 7
  95:/opt/XMClib/XMC_Peripheral_Library_v2.1.16/XMCLib/src/xmc_rtc.c ****   while((XMC_SCU_GetMirrorStatus() & SCU_GENERAL_MIRRSTS_RTC_CTR_Msk) != 0U)
  82              		.loc 2 95 8
  83 0004 00BF     		nop
  84              	.L6:
  85              		.loc 2 95 10 discriminator 1
  86 0006 FFF7FEFF 		bl	XMC_SCU_GetMirrorStatus
  87 000a 0346     		mov	r3, r0
  88              		.loc 2 95 36 discriminator 1
  89 000c 03F48073 		and	r3, r3, #256
  90              		.loc 2 95 8 discriminator 1
  91 0010 002B     		cmp	r3, #0
  92 0012 F8D1     		bne	.L6
  96:/opt/XMClib/XMC_Peripheral_Library_v2.1.16/XMCLib/src/xmc_rtc.c ****   {
  97:/opt/XMClib/XMC_Peripheral_Library_v2.1.16/XMCLib/src/xmc_rtc.c ****     /* check SCU_MIRRSTS to ensure that no transfer over serial interface is pending */
  98:/opt/XMClib/XMC_Peripheral_Library_v2.1.16/XMCLib/src/xmc_rtc.c ****   }
  99:/opt/XMClib/XMC_Peripheral_Library_v2.1.16/XMCLib/src/xmc_rtc.c ****   RTC->CTR |= (uint32_t)RTC_CTR_ENB_Msk;
  93              		.loc 2 99 12
  94 0014 034B     		ldr	r3, .L7
  95 0016 5B68     		ldr	r3, [r3, #4]
  96 0018 024A     		ldr	r2, .L7
  97 001a 43F00103 		orr	r3, r3, #1
  98 001e 5360     		str	r3, [r2, #4]
 100:/opt/XMClib/XMC_Peripheral_Library_v2.1.16/XMCLib/src/xmc_rtc.c **** }
  99              		.loc 2 100 1
 100 0020 00BF     		nop
 101 0022 80BD     		pop	{r7, pc}
 102              	.L8:
 103              		.align	2
 104              	.L7:
 105 0024 004A0050 		.word	1342196224
 106              		.cfi_endproc
 107              	.LFE164:
 109              		.section	.text.XMC_RTC_Stop,"ax",%progbits
 110              		.align	1
 111              		.global	XMC_RTC_Stop
 112              		.syntax unified
 113              		.thumb
 114              		.thumb_func
 116              	XMC_RTC_Stop:
 117              	.LFB165:
 101:/opt/XMClib/XMC_Peripheral_Library_v2.1.16/XMCLib/src/xmc_rtc.c **** 
 102:/opt/XMClib/XMC_Peripheral_Library_v2.1.16/XMCLib/src/xmc_rtc.c **** /*
 103:/opt/XMClib/XMC_Peripheral_Library_v2.1.16/XMCLib/src/xmc_rtc.c ****  * Disables RTC peripheral to start counting time
 104:/opt/XMClib/XMC_Peripheral_Library_v2.1.16/XMCLib/src/xmc_rtc.c ****  */
 105:/opt/XMClib/XMC_Peripheral_Library_v2.1.16/XMCLib/src/xmc_rtc.c **** void XMC_RTC_Stop(void)
 106:/opt/XMClib/XMC_Peripheral_Library_v2.1.16/XMCLib/src/xmc_rtc.c **** {
 118              		.loc 2 106 1
 119              		.cfi_startproc
 120              		@ args = 0, pretend = 0, frame = 0
 121              		@ frame_needed = 1, uses_anonymous_args = 0
 122 0000 80B5     		push	{r7, lr}
 123              	.LCFI6:
 124              		.cfi_def_cfa_offset 8
 125              		.cfi_offset 7, -8
 126              		.cfi_offset 14, -4
 127 0002 00AF     		add	r7, sp, #0
 128              	.LCFI7:
 129              		.cfi_def_cfa_register 7
 107:/opt/XMClib/XMC_Peripheral_Library_v2.1.16/XMCLib/src/xmc_rtc.c ****   while((XMC_SCU_GetMirrorStatus() & SCU_GENERAL_MIRRSTS_RTC_CTR_Msk) != 0U)
 130              		.loc 2 107 8
 131 0004 00BF     		nop
 132              	.L10:
 133              		.loc 2 107 10 discriminator 1
 134 0006 FFF7FEFF 		bl	XMC_SCU_GetMirrorStatus
 135 000a 0346     		mov	r3, r0
 136              		.loc 2 107 36 discriminator 1
 137 000c 03F48073 		and	r3, r3, #256
 138              		.loc 2 107 8 discriminator 1
 139 0010 002B     		cmp	r3, #0
 140 0012 F8D1     		bne	.L10
 108:/opt/XMClib/XMC_Peripheral_Library_v2.1.16/XMCLib/src/xmc_rtc.c ****   {
 109:/opt/XMClib/XMC_Peripheral_Library_v2.1.16/XMCLib/src/xmc_rtc.c ****     /* check SCU_MIRRSTS to ensure that no transfer over serial interface is pending */
 110:/opt/XMClib/XMC_Peripheral_Library_v2.1.16/XMCLib/src/xmc_rtc.c ****   }
 111:/opt/XMClib/XMC_Peripheral_Library_v2.1.16/XMCLib/src/xmc_rtc.c ****   RTC->CTR &= ~(uint32_t)RTC_CTR_ENB_Msk;
 141              		.loc 2 111 12
 142 0014 034B     		ldr	r3, .L11
 143 0016 5B68     		ldr	r3, [r3, #4]
 144 0018 024A     		ldr	r2, .L11
 145 001a 23F00103 		bic	r3, r3, #1
 146 001e 5360     		str	r3, [r2, #4]
 112:/opt/XMClib/XMC_Peripheral_Library_v2.1.16/XMCLib/src/xmc_rtc.c **** }
 147              		.loc 2 112 1
 148 0020 00BF     		nop
 149 0022 80BD     		pop	{r7, pc}
 150              	.L12:
 151              		.align	2
 152              	.L11:
 153 0024 004A0050 		.word	1342196224
 154              		.cfi_endproc
 155              	.LFE165:
 157              		.section	.text.XMC_RTC_SetPrescaler,"ax",%progbits
 158              		.align	1
 159              		.global	XMC_RTC_SetPrescaler
 160              		.syntax unified
 161              		.thumb
 162              		.thumb_func
 164              	XMC_RTC_SetPrescaler:
 165              	.LFB166:
 113:/opt/XMClib/XMC_Peripheral_Library_v2.1.16/XMCLib/src/xmc_rtc.c **** 
 114:/opt/XMClib/XMC_Peripheral_Library_v2.1.16/XMCLib/src/xmc_rtc.c **** /*
 115:/opt/XMClib/XMC_Peripheral_Library_v2.1.16/XMCLib/src/xmc_rtc.c ****  * Sets the RTC module prescaler value
 116:/opt/XMClib/XMC_Peripheral_Library_v2.1.16/XMCLib/src/xmc_rtc.c ****  */
 117:/opt/XMClib/XMC_Peripheral_Library_v2.1.16/XMCLib/src/xmc_rtc.c **** void XMC_RTC_SetPrescaler(uint16_t prescaler)
 118:/opt/XMClib/XMC_Peripheral_Library_v2.1.16/XMCLib/src/xmc_rtc.c **** {
 166              		.loc 2 118 1
 167              		.cfi_startproc
 168              		@ args = 0, pretend = 0, frame = 8
 169              		@ frame_needed = 1, uses_anonymous_args = 0
 170 0000 80B5     		push	{r7, lr}
 171              	.LCFI8:
 172              		.cfi_def_cfa_offset 8
 173              		.cfi_offset 7, -8
 174              		.cfi_offset 14, -4
 175 0002 82B0     		sub	sp, sp, #8
 176              	.LCFI9:
 177              		.cfi_def_cfa_offset 16
 178 0004 00AF     		add	r7, sp, #0
 179              	.LCFI10:
 180              		.cfi_def_cfa_register 7
 181 0006 0346     		mov	r3, r0
 182 0008 FB80     		strh	r3, [r7, #6]	@ movhi
 119:/opt/XMClib/XMC_Peripheral_Library_v2.1.16/XMCLib/src/xmc_rtc.c ****   XMC_ASSERT("XMC_RTC_SetPrescaler:Wrong prescaler value", (prescaler < XMC_RTC_MAXPRESCALER));
 120:/opt/XMClib/XMC_Peripheral_Library_v2.1.16/XMCLib/src/xmc_rtc.c ****   
 121:/opt/XMClib/XMC_Peripheral_Library_v2.1.16/XMCLib/src/xmc_rtc.c ****   while((XMC_SCU_GetMirrorStatus() & SCU_GENERAL_MIRRSTS_RTC_CTR_Msk) != 0U)
 183              		.loc 2 121 8
 184 000a 00BF     		nop
 185              	.L14:
 186              		.loc 2 121 10 discriminator 1
 187 000c FFF7FEFF 		bl	XMC_SCU_GetMirrorStatus
 188 0010 0346     		mov	r3, r0
 189              		.loc 2 121 36 discriminator 1
 190 0012 03F48073 		and	r3, r3, #256
 191              		.loc 2 121 8 discriminator 1
 192 0016 002B     		cmp	r3, #0
 193 0018 F8D1     		bne	.L14
 122:/opt/XMClib/XMC_Peripheral_Library_v2.1.16/XMCLib/src/xmc_rtc.c ****   {
 123:/opt/XMClib/XMC_Peripheral_Library_v2.1.16/XMCLib/src/xmc_rtc.c ****     /* check SCU_MIRRSTS to ensure that no transfer over serial interface is pending */
 124:/opt/XMClib/XMC_Peripheral_Library_v2.1.16/XMCLib/src/xmc_rtc.c ****   }
 125:/opt/XMClib/XMC_Peripheral_Library_v2.1.16/XMCLib/src/xmc_rtc.c ****   RTC->CTR = (RTC->CTR & ~(uint32_t)RTC_CTR_DIV_Msk) |
 194              		.loc 2 125 18
 195 001a 064B     		ldr	r3, .L15
 196 001c 5B68     		ldr	r3, [r3, #4]
 197              		.loc 2 125 24
 198 001e 9AB2     		uxth	r2, r3
 126:/opt/XMClib/XMC_Peripheral_Library_v2.1.16/XMCLib/src/xmc_rtc.c ****              ((uint32_t)prescaler << (uint32_t)RTC_CTR_DIV_Pos);
 199              		.loc 2 126 15
 200 0020 FB88     		ldrh	r3, [r7, #6]
 201              		.loc 2 126 35
 202 0022 1B04     		lsls	r3, r3, #16
 125:/opt/XMClib/XMC_Peripheral_Library_v2.1.16/XMCLib/src/xmc_rtc.c ****              ((uint32_t)prescaler << (uint32_t)RTC_CTR_DIV_Pos);
 203              		.loc 2 125 6
 204 0024 0349     		ldr	r1, .L15
 125:/opt/XMClib/XMC_Peripheral_Library_v2.1.16/XMCLib/src/xmc_rtc.c ****              ((uint32_t)prescaler << (uint32_t)RTC_CTR_DIV_Pos);
 205              		.loc 2 125 54
 206 0026 1343     		orrs	r3, r3, r2
 125:/opt/XMClib/XMC_Peripheral_Library_v2.1.16/XMCLib/src/xmc_rtc.c ****              ((uint32_t)prescaler << (uint32_t)RTC_CTR_DIV_Pos);
 207              		.loc 2 125 12
 208 0028 4B60     		str	r3, [r1, #4]
 127:/opt/XMClib/XMC_Peripheral_Library_v2.1.16/XMCLib/src/xmc_rtc.c **** }
 209              		.loc 2 127 1
 210 002a 00BF     		nop
 211 002c 0837     		adds	r7, r7, #8
 212              	.LCFI11:
 213              		.cfi_def_cfa_offset 8
 214 002e BD46     		mov	sp, r7
 215              	.LCFI12:
 216              		.cfi_def_cfa_register 13
 217              		@ sp needed
 218 0030 80BD     		pop	{r7, pc}
 219              	.L16:
 220 0032 00BF     		.align	2
 221              	.L15:
 222 0034 004A0050 		.word	1342196224
 223              		.cfi_endproc
 224              	.LFE166:
 226              		.section	.text.XMC_RTC_SetTime,"ax",%progbits
 227              		.align	1
 228              		.global	XMC_RTC_SetTime
 229              		.syntax unified
 230              		.thumb
 231              		.thumb_func
 233              	XMC_RTC_SetTime:
 234              	.LFB167:
 128:/opt/XMClib/XMC_Peripheral_Library_v2.1.16/XMCLib/src/xmc_rtc.c **** 
 129:/opt/XMClib/XMC_Peripheral_Library_v2.1.16/XMCLib/src/xmc_rtc.c **** /*
 130:/opt/XMClib/XMC_Peripheral_Library_v2.1.16/XMCLib/src/xmc_rtc.c ****  * Sets the RTC_TIM0, RTC_TIM1 registers with time values
 131:/opt/XMClib/XMC_Peripheral_Library_v2.1.16/XMCLib/src/xmc_rtc.c ****  */
 132:/opt/XMClib/XMC_Peripheral_Library_v2.1.16/XMCLib/src/xmc_rtc.c **** void XMC_RTC_SetTime(const XMC_RTC_TIME_t *const time)
 133:/opt/XMClib/XMC_Peripheral_Library_v2.1.16/XMCLib/src/xmc_rtc.c **** {
 235              		.loc 2 133 1
 236              		.cfi_startproc
 237              		@ args = 0, pretend = 0, frame = 8
 238              		@ frame_needed = 1, uses_anonymous_args = 0
 239 0000 80B5     		push	{r7, lr}
 240              	.LCFI13:
 241              		.cfi_def_cfa_offset 8
 242              		.cfi_offset 7, -8
 243              		.cfi_offset 14, -4
 244 0002 82B0     		sub	sp, sp, #8
 245              	.LCFI14:
 246              		.cfi_def_cfa_offset 16
 247 0004 00AF     		add	r7, sp, #0
 248              	.LCFI15:
 249              		.cfi_def_cfa_register 7
 250 0006 7860     		str	r0, [r7, #4]
 134:/opt/XMClib/XMC_Peripheral_Library_v2.1.16/XMCLib/src/xmc_rtc.c ****   XMC_ASSERT("XMC_RTC_SetTime:Wrong seconds value", ((uint32_t)time->seconds < XMC_RTC_MAXSECONDS))
 135:/opt/XMClib/XMC_Peripheral_Library_v2.1.16/XMCLib/src/xmc_rtc.c ****   XMC_ASSERT("XMC_RTC_SetTime:Wrong minutes value", ((uint32_t)time->minutes < XMC_RTC_MAXMINUTES))
 136:/opt/XMClib/XMC_Peripheral_Library_v2.1.16/XMCLib/src/xmc_rtc.c ****   XMC_ASSERT("XMC_RTC_SetTime:Wrong hours value", ((uint32_t)time->hours < XMC_RTC_MAXHOURS));
 137:/opt/XMClib/XMC_Peripheral_Library_v2.1.16/XMCLib/src/xmc_rtc.c ****   XMC_ASSERT("XMC_RTC_SetTime:Wrong month day value", ((uint32_t)time->days < XMC_RTC_MAXDAYS));
 138:/opt/XMClib/XMC_Peripheral_Library_v2.1.16/XMCLib/src/xmc_rtc.c ****   XMC_ASSERT("XMC_RTC_SetTime:Wrong week day value", ((uint32_t)time->daysofweek < XMC_RTC_MAXDAYSO
 139:/opt/XMClib/XMC_Peripheral_Library_v2.1.16/XMCLib/src/xmc_rtc.c ****   XMC_ASSERT("XMC_RTC_SetTime:Wrong month value", ((uint32_t)time->month < XMC_RTC_MAXMONTH));
 140:/opt/XMClib/XMC_Peripheral_Library_v2.1.16/XMCLib/src/xmc_rtc.c ****   XMC_ASSERT("XMC_RTC_SetTime:Wrong year value", ((uint32_t)time->year < XMC_RTC_MAXYEAR));
 141:/opt/XMClib/XMC_Peripheral_Library_v2.1.16/XMCLib/src/xmc_rtc.c **** 
 142:/opt/XMClib/XMC_Peripheral_Library_v2.1.16/XMCLib/src/xmc_rtc.c ****   #if (XMC_RTC_INIT_SEQUENCE == 1U)
 143:/opt/XMClib/XMC_Peripheral_Library_v2.1.16/XMCLib/src/xmc_rtc.c ****       while ((XMC_SCU_GetMirrorStatus() & SCU_GENERAL_MIRRSTS_RTC_TIM0_Msk) != 0U)
 251              		.loc 2 143 13
 252 0008 00BF     		nop
 253              	.L18:
 254              		.loc 2 143 15 discriminator 1
 255 000a FFF7FEFF 		bl	XMC_SCU_GetMirrorStatus
 256 000e 0346     		mov	r3, r0
 257              		.loc 2 143 41 discriminator 1
 258 0010 03F40063 		and	r3, r3, #2048
 259              		.loc 2 143 13 discriminator 1
 260 0014 002B     		cmp	r3, #0
 261 0016 F8D1     		bne	.L18
 144:/opt/XMClib/XMC_Peripheral_Library_v2.1.16/XMCLib/src/xmc_rtc.c ****       { 
 145:/opt/XMClib/XMC_Peripheral_Library_v2.1.16/XMCLib/src/xmc_rtc.c ****          /* check SCU_MIRRSTS to ensure that no transfer over serial interface is pending */
 146:/opt/XMClib/XMC_Peripheral_Library_v2.1.16/XMCLib/src/xmc_rtc.c ****       }
 147:/opt/XMClib/XMC_Peripheral_Library_v2.1.16/XMCLib/src/xmc_rtc.c ****       RTC->TIM0 = time->raw0;
 262              		.loc 2 147 10
 263 0018 094A     		ldr	r2, .L20
 264              		.loc 2 147 23
 265 001a 7B68     		ldr	r3, [r7, #4]
 266 001c 1B68     		ldr	r3, [r3]
 267              		.loc 2 147 17
 268 001e 1362     		str	r3, [r2, #32]
 148:/opt/XMClib/XMC_Peripheral_Library_v2.1.16/XMCLib/src/xmc_rtc.c ****       
 149:/opt/XMClib/XMC_Peripheral_Library_v2.1.16/XMCLib/src/xmc_rtc.c ****       while ((XMC_SCU_GetMirrorStatus() & SCU_GENERAL_MIRRSTS_RTC_TIM1_Msk) != 0U)
 269              		.loc 2 149 13
 270 0020 00BF     		nop
 271              	.L19:
 272              		.loc 2 149 15 discriminator 1
 273 0022 FFF7FEFF 		bl	XMC_SCU_GetMirrorStatus
 274 0026 0346     		mov	r3, r0
 275              		.loc 2 149 41 discriminator 1
 276 0028 03F48053 		and	r3, r3, #4096
 277              		.loc 2 149 13 discriminator 1
 278 002c 002B     		cmp	r3, #0
 279 002e F8D1     		bne	.L19
 150:/opt/XMClib/XMC_Peripheral_Library_v2.1.16/XMCLib/src/xmc_rtc.c ****       {
 151:/opt/XMClib/XMC_Peripheral_Library_v2.1.16/XMCLib/src/xmc_rtc.c ****         /* check SCU_MIRRSTS to ensure that no transfer over serial interface is pending */
 152:/opt/XMClib/XMC_Peripheral_Library_v2.1.16/XMCLib/src/xmc_rtc.c ****       }
 153:/opt/XMClib/XMC_Peripheral_Library_v2.1.16/XMCLib/src/xmc_rtc.c ****       RTC->TIM1 = time->raw1;	     
 280              		.loc 2 153 10
 281 0030 034A     		ldr	r2, .L20
 282              		.loc 2 153 23
 283 0032 7B68     		ldr	r3, [r7, #4]
 284 0034 5B68     		ldr	r3, [r3, #4]
 285              		.loc 2 153 17
 286 0036 5362     		str	r3, [r2, #36]
 154:/opt/XMClib/XMC_Peripheral_Library_v2.1.16/XMCLib/src/xmc_rtc.c ****   #endif
 155:/opt/XMClib/XMC_Peripheral_Library_v2.1.16/XMCLib/src/xmc_rtc.c ****   #if (XMC_RTC_INIT_SEQUENCE == 0U)
 156:/opt/XMClib/XMC_Peripheral_Library_v2.1.16/XMCLib/src/xmc_rtc.c ****       while ((XMC_SCU_GetMirrorStatus() & (SCU_GENERAL_MIRRSTS_RTC_TIM0_Msk | SCU_GENERAL_MIRRSTS_R
 157:/opt/XMClib/XMC_Peripheral_Library_v2.1.16/XMCLib/src/xmc_rtc.c ****       {
 158:/opt/XMClib/XMC_Peripheral_Library_v2.1.16/XMCLib/src/xmc_rtc.c ****         /* check SCU_MIRRSTS to ensure that no transfer over serial interface is pending */
 159:/opt/XMClib/XMC_Peripheral_Library_v2.1.16/XMCLib/src/xmc_rtc.c ****       }
 160:/opt/XMClib/XMC_Peripheral_Library_v2.1.16/XMCLib/src/xmc_rtc.c ****       RTC->TIM0 = time->raw0;
 161:/opt/XMClib/XMC_Peripheral_Library_v2.1.16/XMCLib/src/xmc_rtc.c ****       RTC->TIM1 = time->raw1;	; 
 162:/opt/XMClib/XMC_Peripheral_Library_v2.1.16/XMCLib/src/xmc_rtc.c ****   #endif  
 163:/opt/XMClib/XMC_Peripheral_Library_v2.1.16/XMCLib/src/xmc_rtc.c **** }
 287              		.loc 2 163 1
 288 0038 00BF     		nop
 289 003a 0837     		adds	r7, r7, #8
 290              	.LCFI16:
 291              		.cfi_def_cfa_offset 8
 292 003c BD46     		mov	sp, r7
 293              	.LCFI17:
 294              		.cfi_def_cfa_register 13
 295              		@ sp needed
 296 003e 80BD     		pop	{r7, pc}
 297              	.L21:
 298              		.align	2
 299              	.L20:
 300 0040 004A0050 		.word	1342196224
 301              		.cfi_endproc
 302              	.LFE167:
 304              		.section	.text.XMC_RTC_GetTime,"ax",%progbits
 305              		.align	1
 306              		.global	XMC_RTC_GetTime
 307              		.syntax unified
 308              		.thumb
 309              		.thumb_func
 311              	XMC_RTC_GetTime:
 312              	.LFB168:
 164:/opt/XMClib/XMC_Peripheral_Library_v2.1.16/XMCLib/src/xmc_rtc.c **** 
 165:/opt/XMClib/XMC_Peripheral_Library_v2.1.16/XMCLib/src/xmc_rtc.c **** /*
 166:/opt/XMClib/XMC_Peripheral_Library_v2.1.16/XMCLib/src/xmc_rtc.c ****  * Gets the RTC module time value
 167:/opt/XMClib/XMC_Peripheral_Library_v2.1.16/XMCLib/src/xmc_rtc.c ****  */
 168:/opt/XMClib/XMC_Peripheral_Library_v2.1.16/XMCLib/src/xmc_rtc.c **** void XMC_RTC_GetTime(XMC_RTC_TIME_t *const time)
 169:/opt/XMClib/XMC_Peripheral_Library_v2.1.16/XMCLib/src/xmc_rtc.c **** {
 313              		.loc 2 169 1
 314              		.cfi_startproc
 315              		@ args = 0, pretend = 0, frame = 8
 316              		@ frame_needed = 1, uses_anonymous_args = 0
 317              		@ link register save eliminated.
 318 0000 80B4     		push	{r7}
 319              	.LCFI18:
 320              		.cfi_def_cfa_offset 4
 321              		.cfi_offset 7, -4
 322 0002 83B0     		sub	sp, sp, #12
 323              	.LCFI19:
 324              		.cfi_def_cfa_offset 16
 325 0004 00AF     		add	r7, sp, #0
 326              	.LCFI20:
 327              		.cfi_def_cfa_register 7
 328 0006 7860     		str	r0, [r7, #4]
 170:/opt/XMClib/XMC_Peripheral_Library_v2.1.16/XMCLib/src/xmc_rtc.c ****   time->raw0 = RTC->TIM0;
 329              		.loc 2 170 19
 330 0008 064B     		ldr	r3, .L23
 331 000a 1A6A     		ldr	r2, [r3, #32]
 332              		.loc 2 170 14
 333 000c 7B68     		ldr	r3, [r7, #4]
 334 000e 1A60     		str	r2, [r3]
 171:/opt/XMClib/XMC_Peripheral_Library_v2.1.16/XMCLib/src/xmc_rtc.c ****   time->raw1 = RTC->TIM1;
 335              		.loc 2 171 19
 336 0010 044B     		ldr	r3, .L23
 337 0012 5A6A     		ldr	r2, [r3, #36]
 338              		.loc 2 171 14
 339 0014 7B68     		ldr	r3, [r7, #4]
 340 0016 5A60     		str	r2, [r3, #4]
 172:/opt/XMClib/XMC_Peripheral_Library_v2.1.16/XMCLib/src/xmc_rtc.c **** }
 341              		.loc 2 172 1
 342 0018 00BF     		nop
 343 001a 0C37     		adds	r7, r7, #12
 344              	.LCFI21:
 345              		.cfi_def_cfa_offset 4
 346 001c BD46     		mov	sp, r7
 347              	.LCFI22:
 348              		.cfi_def_cfa_register 13
 349              		@ sp needed
 350 001e 5DF8047B 		ldr	r7, [sp], #4
 351              	.LCFI23:
 352              		.cfi_restore 7
 353              		.cfi_def_cfa_offset 0
 354 0022 7047     		bx	lr
 355              	.L24:
 356              		.align	2
 357              	.L23:
 358 0024 004A0050 		.word	1342196224
 359              		.cfi_endproc
 360              	.LFE168:
 362              		.section	.text.XMC_RTC_SetTimeStdFormat,"ax",%progbits
 363              		.align	1
 364              		.global	XMC_RTC_SetTimeStdFormat
 365              		.syntax unified
 366              		.thumb
 367              		.thumb_func
 369              	XMC_RTC_SetTimeStdFormat:
 370              	.LFB169:
 173:/opt/XMClib/XMC_Peripheral_Library_v2.1.16/XMCLib/src/xmc_rtc.c **** 
 174:/opt/XMClib/XMC_Peripheral_Library_v2.1.16/XMCLib/src/xmc_rtc.c **** /*
 175:/opt/XMClib/XMC_Peripheral_Library_v2.1.16/XMCLib/src/xmc_rtc.c ****  * Sets the RTC module time values in standard format
 176:/opt/XMClib/XMC_Peripheral_Library_v2.1.16/XMCLib/src/xmc_rtc.c ****  */
 177:/opt/XMClib/XMC_Peripheral_Library_v2.1.16/XMCLib/src/xmc_rtc.c **** void XMC_RTC_SetTimeStdFormat(const struct tm *const stdtime)
 178:/opt/XMClib/XMC_Peripheral_Library_v2.1.16/XMCLib/src/xmc_rtc.c **** {
 371              		.loc 2 178 1
 372              		.cfi_startproc
 373              		@ args = 0, pretend = 0, frame = 16
 374              		@ frame_needed = 1, uses_anonymous_args = 0
 375 0000 80B5     		push	{r7, lr}
 376              	.LCFI24:
 377              		.cfi_def_cfa_offset 8
 378              		.cfi_offset 7, -8
 379              		.cfi_offset 14, -4
 380 0002 84B0     		sub	sp, sp, #16
 381              	.LCFI25:
 382              		.cfi_def_cfa_offset 24
 383 0004 00AF     		add	r7, sp, #0
 384              	.LCFI26:
 385              		.cfi_def_cfa_register 7
 386 0006 7860     		str	r0, [r7, #4]
 179:/opt/XMClib/XMC_Peripheral_Library_v2.1.16/XMCLib/src/xmc_rtc.c **** 
 180:/opt/XMClib/XMC_Peripheral_Library_v2.1.16/XMCLib/src/xmc_rtc.c ****   XMC_RTC_TIME_t time;
 181:/opt/XMClib/XMC_Peripheral_Library_v2.1.16/XMCLib/src/xmc_rtc.c **** 
 182:/opt/XMClib/XMC_Peripheral_Library_v2.1.16/XMCLib/src/xmc_rtc.c ****   time.seconds = stdtime->tm_sec;
 387              		.loc 2 182 25
 388 0008 7B68     		ldr	r3, [r7, #4]
 389 000a 1B68     		ldr	r3, [r3]
 390 000c 03F03F03 		and	r3, r3, #63
 391 0010 DAB2     		uxtb	r2, r3
 392              		.loc 2 182 16
 393 0012 3B7A     		ldrb	r3, [r7, #8]
 394 0014 62F30503 		bfi	r3, r2, #0, #6
 395 0018 3B72     		strb	r3, [r7, #8]
 183:/opt/XMClib/XMC_Peripheral_Library_v2.1.16/XMCLib/src/xmc_rtc.c ****   time.minutes = stdtime->tm_min;
 396              		.loc 2 183 25
 397 001a 7B68     		ldr	r3, [r7, #4]
 398 001c 5B68     		ldr	r3, [r3, #4]
 399 001e 03F03F03 		and	r3, r3, #63
 400 0022 DAB2     		uxtb	r2, r3
 401              		.loc 2 183 16
 402 0024 7B7A     		ldrb	r3, [r7, #9]
 403 0026 62F30503 		bfi	r3, r2, #0, #6
 404 002a 7B72     		strb	r3, [r7, #9]
 184:/opt/XMClib/XMC_Peripheral_Library_v2.1.16/XMCLib/src/xmc_rtc.c ****   time.hours = stdtime->tm_hour;
 405              		.loc 2 184 23
 406 002c 7B68     		ldr	r3, [r7, #4]
 407 002e 9B68     		ldr	r3, [r3, #8]
 408 0030 03F01F03 		and	r3, r3, #31
 409 0034 DAB2     		uxtb	r2, r3
 410              		.loc 2 184 14
 411 0036 BB7A     		ldrb	r3, [r7, #10]
 412 0038 62F30403 		bfi	r3, r2, #0, #5
 413 003c BB72     		strb	r3, [r7, #10]
 185:/opt/XMClib/XMC_Peripheral_Library_v2.1.16/XMCLib/src/xmc_rtc.c ****   time.days = stdtime->tm_mday - 1;
 414              		.loc 2 185 22
 415 003e 7B68     		ldr	r3, [r7, #4]
 416 0040 DB68     		ldr	r3, [r3, #12]
 417              		.loc 2 185 32
 418 0042 DBB2     		uxtb	r3, r3
 419 0044 013B     		subs	r3, r3, #1
 420 0046 DBB2     		uxtb	r3, r3
 421 0048 03F01F03 		and	r3, r3, #31
 422 004c DAB2     		uxtb	r2, r3
 423              		.loc 2 185 13
 424 004e FB7A     		ldrb	r3, [r7, #11]
 425 0050 62F30403 		bfi	r3, r2, #0, #5
 426 0054 FB72     		strb	r3, [r7, #11]
 186:/opt/XMClib/XMC_Peripheral_Library_v2.1.16/XMCLib/src/xmc_rtc.c ****   time.month = stdtime->tm_mon;
 427              		.loc 2 186 23
 428 0056 7B68     		ldr	r3, [r7, #4]
 429 0058 1B69     		ldr	r3, [r3, #16]
 430 005a 03F00F03 		and	r3, r3, #15
 431 005e DAB2     		uxtb	r2, r3
 432              		.loc 2 186 14
 433 0060 7B7B     		ldrb	r3, [r7, #13]
 434 0062 62F30303 		bfi	r3, r2, #0, #4
 435 0066 7B73     		strb	r3, [r7, #13]
 187:/opt/XMClib/XMC_Peripheral_Library_v2.1.16/XMCLib/src/xmc_rtc.c ****   time.year = stdtime->tm_year + XMC_RTC_YEAR_OFFSET;
 436              		.loc 2 187 22
 437 0068 7B68     		ldr	r3, [r7, #4]
 438 006a 5B69     		ldr	r3, [r3, #20]
 439              		.loc 2 187 32
 440 006c 9BB2     		uxth	r3, r3
 441 006e 03F26C73 		addw	r3, r3, #1900
 442 0072 9BB2     		uxth	r3, r3
 443              		.loc 2 187 13
 444 0074 FB81     		strh	r3, [r7, #14]	@ movhi
 188:/opt/XMClib/XMC_Peripheral_Library_v2.1.16/XMCLib/src/xmc_rtc.c ****   time.daysofweek = stdtime->tm_wday;
 445              		.loc 2 188 28
 446 0076 7B68     		ldr	r3, [r7, #4]
 447 0078 9B69     		ldr	r3, [r3, #24]
 448 007a 03F00703 		and	r3, r3, #7
 449 007e DAB2     		uxtb	r2, r3
 450              		.loc 2 188 19
 451 0080 3B7B     		ldrb	r3, [r7, #12]
 452 0082 62F30203 		bfi	r3, r2, #0, #3
 453 0086 3B73     		strb	r3, [r7, #12]
 189:/opt/XMClib/XMC_Peripheral_Library_v2.1.16/XMCLib/src/xmc_rtc.c **** 
 190:/opt/XMClib/XMC_Peripheral_Library_v2.1.16/XMCLib/src/xmc_rtc.c ****   XMC_RTC_SetTime(&time);
 454              		.loc 2 190 3
 455 0088 07F10803 		add	r3, r7, #8
 456 008c 1846     		mov	r0, r3
 457 008e FFF7FEFF 		bl	XMC_RTC_SetTime
 191:/opt/XMClib/XMC_Peripheral_Library_v2.1.16/XMCLib/src/xmc_rtc.c **** }
 458              		.loc 2 191 1
 459 0092 00BF     		nop
 460 0094 1037     		adds	r7, r7, #16
 461              	.LCFI27:
 462              		.cfi_def_cfa_offset 8
 463 0096 BD46     		mov	sp, r7
 464              	.LCFI28:
 465              		.cfi_def_cfa_register 13
 466              		@ sp needed
 467 0098 80BD     		pop	{r7, pc}
 468              		.cfi_endproc
 469              	.LFE169:
 471              		.section	.text.XMC_RTC_GetTimeStdFormat,"ax",%progbits
 472              		.align	1
 473              		.global	XMC_RTC_GetTimeStdFormat
 474              		.syntax unified
 475              		.thumb
 476              		.thumb_func
 478              	XMC_RTC_GetTimeStdFormat:
 479              	.LFB170:
 192:/opt/XMClib/XMC_Peripheral_Library_v2.1.16/XMCLib/src/xmc_rtc.c **** 
 193:/opt/XMClib/XMC_Peripheral_Library_v2.1.16/XMCLib/src/xmc_rtc.c **** /*
 194:/opt/XMClib/XMC_Peripheral_Library_v2.1.16/XMCLib/src/xmc_rtc.c ****  * Gets the RTC module time values in standard format
 195:/opt/XMClib/XMC_Peripheral_Library_v2.1.16/XMCLib/src/xmc_rtc.c ****  */
 196:/opt/XMClib/XMC_Peripheral_Library_v2.1.16/XMCLib/src/xmc_rtc.c **** void XMC_RTC_GetTimeStdFormat(struct tm *const stdtime)
 197:/opt/XMClib/XMC_Peripheral_Library_v2.1.16/XMCLib/src/xmc_rtc.c **** {
 480              		.loc 2 197 1
 481              		.cfi_startproc
 482              		@ args = 0, pretend = 0, frame = 16
 483              		@ frame_needed = 1, uses_anonymous_args = 0
 484              		@ link register save eliminated.
 485 0000 80B4     		push	{r7}
 486              	.LCFI29:
 487              		.cfi_def_cfa_offset 4
 488              		.cfi_offset 7, -4
 489 0002 85B0     		sub	sp, sp, #20
 490              	.LCFI30:
 491              		.cfi_def_cfa_offset 24
 492 0004 00AF     		add	r7, sp, #0
 493              	.LCFI31:
 494              		.cfi_def_cfa_register 7
 495 0006 7860     		str	r0, [r7, #4]
 198:/opt/XMClib/XMC_Peripheral_Library_v2.1.16/XMCLib/src/xmc_rtc.c ****   XMC_RTC_TIME_t time;
 199:/opt/XMClib/XMC_Peripheral_Library_v2.1.16/XMCLib/src/xmc_rtc.c ****   time.raw0 = RTC->TIM0;
 496              		.loc 2 199 18
 497 0008 1D4B     		ldr	r3, .L27
 498 000a 1B6A     		ldr	r3, [r3, #32]
 499              		.loc 2 199 13
 500 000c BB60     		str	r3, [r7, #8]
 200:/opt/XMClib/XMC_Peripheral_Library_v2.1.16/XMCLib/src/xmc_rtc.c ****   time.raw1 = RTC->TIM1;
 501              		.loc 2 200 18
 502 000e 1C4B     		ldr	r3, .L27
 503 0010 5B6A     		ldr	r3, [r3, #36]
 504              		.loc 2 200 13
 505 0012 FB60     		str	r3, [r7, #12]
 201:/opt/XMClib/XMC_Peripheral_Library_v2.1.16/XMCLib/src/xmc_rtc.c ****   
 202:/opt/XMClib/XMC_Peripheral_Library_v2.1.16/XMCLib/src/xmc_rtc.c ****   stdtime->tm_sec = (int8_t)time.seconds;
 506              		.loc 2 202 33
 507 0014 3B7A     		ldrb	r3, [r7, #8]
 508 0016 C3F30503 		ubfx	r3, r3, #0, #6
 509 001a DBB2     		uxtb	r3, r3
 510              		.loc 2 202 21
 511 001c 1A46     		mov	r2, r3
 512              		.loc 2 202 19
 513 001e 7B68     		ldr	r3, [r7, #4]
 514 0020 1A60     		str	r2, [r3]
 203:/opt/XMClib/XMC_Peripheral_Library_v2.1.16/XMCLib/src/xmc_rtc.c ****   stdtime->tm_min = (int8_t)time.minutes;
 515              		.loc 2 203 33
 516 0022 7B7A     		ldrb	r3, [r7, #9]
 517 0024 C3F30503 		ubfx	r3, r3, #0, #6
 518 0028 DBB2     		uxtb	r3, r3
 519              		.loc 2 203 21
 520 002a 1A46     		mov	r2, r3
 521              		.loc 2 203 19
 522 002c 7B68     		ldr	r3, [r7, #4]
 523 002e 5A60     		str	r2, [r3, #4]
 204:/opt/XMClib/XMC_Peripheral_Library_v2.1.16/XMCLib/src/xmc_rtc.c ****   stdtime->tm_hour = (int8_t)time.hours;
 524              		.loc 2 204 34
 525 0030 BB7A     		ldrb	r3, [r7, #10]
 526 0032 C3F30403 		ubfx	r3, r3, #0, #5
 527 0036 DBB2     		uxtb	r3, r3
 528              		.loc 2 204 22
 529 0038 1A46     		mov	r2, r3
 530              		.loc 2 204 20
 531 003a 7B68     		ldr	r3, [r7, #4]
 532 003c 9A60     		str	r2, [r3, #8]
 205:/opt/XMClib/XMC_Peripheral_Library_v2.1.16/XMCLib/src/xmc_rtc.c ****   stdtime->tm_mday = ((int8_t)time.days + (int8_t)1);
 533              		.loc 2 205 35
 534 003e FB7A     		ldrb	r3, [r7, #11]
 535 0040 C3F30403 		ubfx	r3, r3, #0, #5
 536 0044 DBB2     		uxtb	r3, r3
 537              		.loc 2 205 41
 538 0046 5A1C     		adds	r2, r3, #1
 539              		.loc 2 205 20
 540 0048 7B68     		ldr	r3, [r7, #4]
 541 004a DA60     		str	r2, [r3, #12]
 206:/opt/XMClib/XMC_Peripheral_Library_v2.1.16/XMCLib/src/xmc_rtc.c ****   stdtime->tm_mon = (int8_t)time.month;
 542              		.loc 2 206 33
 543 004c 7B7B     		ldrb	r3, [r7, #13]
 544 004e C3F30303 		ubfx	r3, r3, #0, #4
 545 0052 DBB2     		uxtb	r3, r3
 546              		.loc 2 206 21
 547 0054 1A46     		mov	r2, r3
 548              		.loc 2 206 19
 549 0056 7B68     		ldr	r3, [r7, #4]
 550 0058 1A61     		str	r2, [r3, #16]
 207:/opt/XMClib/XMC_Peripheral_Library_v2.1.16/XMCLib/src/xmc_rtc.c ****   stdtime->tm_year = (int32_t)time.year - (int32_t)XMC_RTC_YEAR_OFFSET;
 551              		.loc 2 207 35
 552 005a FB89     		ldrh	r3, [r7, #14]
 553              		.loc 2 207 41
 554 005c A3F26C72 		subw	r2, r3, #1900
 555              		.loc 2 207 20
 556 0060 7B68     		ldr	r3, [r7, #4]
 557 0062 5A61     		str	r2, [r3, #20]
 208:/opt/XMClib/XMC_Peripheral_Library_v2.1.16/XMCLib/src/xmc_rtc.c ****   stdtime->tm_wday = (int8_t)time.daysofweek;
 558              		.loc 2 208 34
 559 0064 3B7B     		ldrb	r3, [r7, #12]
 560 0066 C3F30203 		ubfx	r3, r3, #0, #3
 561 006a DBB2     		uxtb	r3, r3
 562              		.loc 2 208 22
 563 006c 1A46     		mov	r2, r3
 564              		.loc 2 208 20
 565 006e 7B68     		ldr	r3, [r7, #4]
 566 0070 9A61     		str	r2, [r3, #24]
 209:/opt/XMClib/XMC_Peripheral_Library_v2.1.16/XMCLib/src/xmc_rtc.c **** }
 567              		.loc 2 209 1
 568 0072 00BF     		nop
 569 0074 1437     		adds	r7, r7, #20
 570              	.LCFI32:
 571              		.cfi_def_cfa_offset 4
 572 0076 BD46     		mov	sp, r7
 573              	.LCFI33:
 574              		.cfi_def_cfa_register 13
 575              		@ sp needed
 576 0078 5DF8047B 		ldr	r7, [sp], #4
 577              	.LCFI34:
 578              		.cfi_restore 7
 579              		.cfi_def_cfa_offset 0
 580 007c 7047     		bx	lr
 581              	.L28:
 582 007e 00BF     		.align	2
 583              	.L27:
 584 0080 004A0050 		.word	1342196224
 585              		.cfi_endproc
 586              	.LFE170:
 588              		.section	.text.XMC_RTC_SetAlarm,"ax",%progbits
 589              		.align	1
 590              		.global	XMC_RTC_SetAlarm
 591              		.syntax unified
 592              		.thumb
 593              		.thumb_func
 595              	XMC_RTC_SetAlarm:
 596              	.LFB171:
 210:/opt/XMClib/XMC_Peripheral_Library_v2.1.16/XMCLib/src/xmc_rtc.c **** 
 211:/opt/XMClib/XMC_Peripheral_Library_v2.1.16/XMCLib/src/xmc_rtc.c **** /*
 212:/opt/XMClib/XMC_Peripheral_Library_v2.1.16/XMCLib/src/xmc_rtc.c ****  * Sets the RTC module alarm time value
 213:/opt/XMClib/XMC_Peripheral_Library_v2.1.16/XMCLib/src/xmc_rtc.c ****  */
 214:/opt/XMClib/XMC_Peripheral_Library_v2.1.16/XMCLib/src/xmc_rtc.c **** void XMC_RTC_SetAlarm(const XMC_RTC_ALARM_t *const alarm)
 215:/opt/XMClib/XMC_Peripheral_Library_v2.1.16/XMCLib/src/xmc_rtc.c **** {
 597              		.loc 2 215 1
 598              		.cfi_startproc
 599              		@ args = 0, pretend = 0, frame = 8
 600              		@ frame_needed = 1, uses_anonymous_args = 0
 601 0000 80B5     		push	{r7, lr}
 602              	.LCFI35:
 603              		.cfi_def_cfa_offset 8
 604              		.cfi_offset 7, -8
 605              		.cfi_offset 14, -4
 606 0002 82B0     		sub	sp, sp, #8
 607              	.LCFI36:
 608              		.cfi_def_cfa_offset 16
 609 0004 00AF     		add	r7, sp, #0
 610              	.LCFI37:
 611              		.cfi_def_cfa_register 7
 612 0006 7860     		str	r0, [r7, #4]
 216:/opt/XMClib/XMC_Peripheral_Library_v2.1.16/XMCLib/src/xmc_rtc.c ****   XMC_ASSERT("XMC_RTC_SetAlarm:Wrong seconds value", ((uint32_t)alarm->seconds < XMC_RTC_MAXSECONDS
 217:/opt/XMClib/XMC_Peripheral_Library_v2.1.16/XMCLib/src/xmc_rtc.c ****   XMC_ASSERT("XMC_RTC_SetAlarm:Wrong minutes value", ((uint32_t)alarm->minutes < XMC_RTC_MAXMINUTES
 218:/opt/XMClib/XMC_Peripheral_Library_v2.1.16/XMCLib/src/xmc_rtc.c ****   XMC_ASSERT("XMC_RTC_SetAlarm:Wrong hours value", ((uint32_t)alarm->hours < XMC_RTC_MAXHOURS));
 219:/opt/XMClib/XMC_Peripheral_Library_v2.1.16/XMCLib/src/xmc_rtc.c ****   XMC_ASSERT("XMC_RTC_SetAlarm:Wrong days value", ((uint32_t)alarm->days < XMC_RTC_MAXDAYS));
 220:/opt/XMClib/XMC_Peripheral_Library_v2.1.16/XMCLib/src/xmc_rtc.c ****   XMC_ASSERT("XMC_RTC_SetAlarm:Wrong month value", ((uint32_t)alarm->month < XMC_RTC_MAXMONTH));
 221:/opt/XMClib/XMC_Peripheral_Library_v2.1.16/XMCLib/src/xmc_rtc.c ****   XMC_ASSERT("XMC_RTC_SetAlarm:Wrong year value", ((uint32_t)alarm->year < XMC_RTC_MAXYEAR));
 222:/opt/XMClib/XMC_Peripheral_Library_v2.1.16/XMCLib/src/xmc_rtc.c **** 
 223:/opt/XMClib/XMC_Peripheral_Library_v2.1.16/XMCLib/src/xmc_rtc.c ****   #if (XMC_RTC_INIT_SEQUENCE == 1U)
 224:/opt/XMClib/XMC_Peripheral_Library_v2.1.16/XMCLib/src/xmc_rtc.c ****       while ((XMC_SCU_GetMirrorStatus() & SCU_GENERAL_MIRRSTS_RTC_ATIM0_Msk) != 0U)
 613              		.loc 2 224 13
 614 0008 00BF     		nop
 615              	.L30:
 616              		.loc 2 224 15 discriminator 1
 617 000a FFF7FEFF 		bl	XMC_SCU_GetMirrorStatus
 618 000e 0346     		mov	r3, r0
 619              		.loc 2 224 41 discriminator 1
 620 0010 03F40073 		and	r3, r3, #512
 621              		.loc 2 224 13 discriminator 1
 622 0014 002B     		cmp	r3, #0
 623 0016 F8D1     		bne	.L30
 225:/opt/XMClib/XMC_Peripheral_Library_v2.1.16/XMCLib/src/xmc_rtc.c ****       {
 226:/opt/XMClib/XMC_Peripheral_Library_v2.1.16/XMCLib/src/xmc_rtc.c ****         /* check SCU_MIRRSTS to ensure that no transfer over serial interface is pending */
 227:/opt/XMClib/XMC_Peripheral_Library_v2.1.16/XMCLib/src/xmc_rtc.c ****       }
 228:/opt/XMClib/XMC_Peripheral_Library_v2.1.16/XMCLib/src/xmc_rtc.c ****       RTC->ATIM0 = alarm->raw0;
 624              		.loc 2 228 10
 625 0018 094A     		ldr	r2, .L32
 626              		.loc 2 228 25
 627 001a 7B68     		ldr	r3, [r7, #4]
 628 001c 1B68     		ldr	r3, [r3]
 629              		.loc 2 228 18
 630 001e 9361     		str	r3, [r2, #24]
 229:/opt/XMClib/XMC_Peripheral_Library_v2.1.16/XMCLib/src/xmc_rtc.c ****       
 230:/opt/XMClib/XMC_Peripheral_Library_v2.1.16/XMCLib/src/xmc_rtc.c ****       while ((XMC_SCU_GetMirrorStatus() & SCU_GENERAL_MIRRSTS_RTC_ATIM1_Msk) != 0U)
 631              		.loc 2 230 13
 632 0020 00BF     		nop
 633              	.L31:
 634              		.loc 2 230 15 discriminator 1
 635 0022 FFF7FEFF 		bl	XMC_SCU_GetMirrorStatus
 636 0026 0346     		mov	r3, r0
 637              		.loc 2 230 41 discriminator 1
 638 0028 03F48063 		and	r3, r3, #1024
 639              		.loc 2 230 13 discriminator 1
 640 002c 002B     		cmp	r3, #0
 641 002e F8D1     		bne	.L31
 231:/opt/XMClib/XMC_Peripheral_Library_v2.1.16/XMCLib/src/xmc_rtc.c ****       {
 232:/opt/XMClib/XMC_Peripheral_Library_v2.1.16/XMCLib/src/xmc_rtc.c ****         /* check SCU_MIRRSTS to ensure that no transfer over serial interface is pending */
 233:/opt/XMClib/XMC_Peripheral_Library_v2.1.16/XMCLib/src/xmc_rtc.c ****       }
 234:/opt/XMClib/XMC_Peripheral_Library_v2.1.16/XMCLib/src/xmc_rtc.c ****       RTC->ATIM1 = alarm->raw1; 
 642              		.loc 2 234 10
 643 0030 034A     		ldr	r2, .L32
 644              		.loc 2 234 25
 645 0032 7B68     		ldr	r3, [r7, #4]
 646 0034 5B68     		ldr	r3, [r3, #4]
 647              		.loc 2 234 18
 648 0036 D361     		str	r3, [r2, #28]
 235:/opt/XMClib/XMC_Peripheral_Library_v2.1.16/XMCLib/src/xmc_rtc.c ****   #endif
 236:/opt/XMClib/XMC_Peripheral_Library_v2.1.16/XMCLib/src/xmc_rtc.c ****   #if (XMC_RTC_INIT_SEQUENCE == 0U)
 237:/opt/XMClib/XMC_Peripheral_Library_v2.1.16/XMCLib/src/xmc_rtc.c ****       while ((XMC_SCU_GetMirrorStatus() & (SCU_GENERAL_MIRRSTS_RTC_ATIM0_Msk | SCU_GENERAL_MIRRSTS_
 238:/opt/XMClib/XMC_Peripheral_Library_v2.1.16/XMCLib/src/xmc_rtc.c ****       {
 239:/opt/XMClib/XMC_Peripheral_Library_v2.1.16/XMCLib/src/xmc_rtc.c ****         /* check SCU_MIRRSTS to ensure that no transfer over serial interface is pending */
 240:/opt/XMClib/XMC_Peripheral_Library_v2.1.16/XMCLib/src/xmc_rtc.c ****       }
 241:/opt/XMClib/XMC_Peripheral_Library_v2.1.16/XMCLib/src/xmc_rtc.c ****       RTC->ATIM0 = alarm->raw0;
 242:/opt/XMClib/XMC_Peripheral_Library_v2.1.16/XMCLib/src/xmc_rtc.c ****       RTC->ATIM1 = alarm->raw1; 
 243:/opt/XMClib/XMC_Peripheral_Library_v2.1.16/XMCLib/src/xmc_rtc.c ****   #endif  
 244:/opt/XMClib/XMC_Peripheral_Library_v2.1.16/XMCLib/src/xmc_rtc.c **** }
 649              		.loc 2 244 1
 650 0038 00BF     		nop
 651 003a 0837     		adds	r7, r7, #8
 652              	.LCFI38:
 653              		.cfi_def_cfa_offset 8
 654 003c BD46     		mov	sp, r7
 655              	.LCFI39:
 656              		.cfi_def_cfa_register 13
 657              		@ sp needed
 658 003e 80BD     		pop	{r7, pc}
 659              	.L33:
 660              		.align	2
 661              	.L32:
 662 0040 004A0050 		.word	1342196224
 663              		.cfi_endproc
 664              	.LFE171:
 666              		.section	.text.XMC_RTC_GetAlarm,"ax",%progbits
 667              		.align	1
 668              		.global	XMC_RTC_GetAlarm
 669              		.syntax unified
 670              		.thumb
 671              		.thumb_func
 673              	XMC_RTC_GetAlarm:
 674              	.LFB172:
 245:/opt/XMClib/XMC_Peripheral_Library_v2.1.16/XMCLib/src/xmc_rtc.c **** 
 246:/opt/XMClib/XMC_Peripheral_Library_v2.1.16/XMCLib/src/xmc_rtc.c **** /*
 247:/opt/XMClib/XMC_Peripheral_Library_v2.1.16/XMCLib/src/xmc_rtc.c ****  * Gets the RTC module alarm time value
 248:/opt/XMClib/XMC_Peripheral_Library_v2.1.16/XMCLib/src/xmc_rtc.c ****  */
 249:/opt/XMClib/XMC_Peripheral_Library_v2.1.16/XMCLib/src/xmc_rtc.c **** void XMC_RTC_GetAlarm(XMC_RTC_ALARM_t *const alarm)
 250:/opt/XMClib/XMC_Peripheral_Library_v2.1.16/XMCLib/src/xmc_rtc.c **** {
 675              		.loc 2 250 1
 676              		.cfi_startproc
 677              		@ args = 0, pretend = 0, frame = 8
 678              		@ frame_needed = 1, uses_anonymous_args = 0
 679              		@ link register save eliminated.
 680 0000 80B4     		push	{r7}
 681              	.LCFI40:
 682              		.cfi_def_cfa_offset 4
 683              		.cfi_offset 7, -4
 684 0002 83B0     		sub	sp, sp, #12
 685              	.LCFI41:
 686              		.cfi_def_cfa_offset 16
 687 0004 00AF     		add	r7, sp, #0
 688              	.LCFI42:
 689              		.cfi_def_cfa_register 7
 690 0006 7860     		str	r0, [r7, #4]
 251:/opt/XMClib/XMC_Peripheral_Library_v2.1.16/XMCLib/src/xmc_rtc.c ****   alarm->raw0 = RTC->ATIM0;
 691              		.loc 2 251 20
 692 0008 064B     		ldr	r3, .L35
 693 000a 9A69     		ldr	r2, [r3, #24]
 694              		.loc 2 251 15
 695 000c 7B68     		ldr	r3, [r7, #4]
 696 000e 1A60     		str	r2, [r3]
 252:/opt/XMClib/XMC_Peripheral_Library_v2.1.16/XMCLib/src/xmc_rtc.c ****   alarm->raw1 = RTC->ATIM1;
 697              		.loc 2 252 20
 698 0010 044B     		ldr	r3, .L35
 699 0012 DA69     		ldr	r2, [r3, #28]
 700              		.loc 2 252 15
 701 0014 7B68     		ldr	r3, [r7, #4]
 702 0016 5A60     		str	r2, [r3, #4]
 253:/opt/XMClib/XMC_Peripheral_Library_v2.1.16/XMCLib/src/xmc_rtc.c **** }
 703              		.loc 2 253 1
 704 0018 00BF     		nop
 705 001a 0C37     		adds	r7, r7, #12
 706              	.LCFI43:
 707              		.cfi_def_cfa_offset 4
 708 001c BD46     		mov	sp, r7
 709              	.LCFI44:
 710              		.cfi_def_cfa_register 13
 711              		@ sp needed
 712 001e 5DF8047B 		ldr	r7, [sp], #4
 713              	.LCFI45:
 714              		.cfi_restore 7
 715              		.cfi_def_cfa_offset 0
 716 0022 7047     		bx	lr
 717              	.L36:
 718              		.align	2
 719              	.L35:
 720 0024 004A0050 		.word	1342196224
 721              		.cfi_endproc
 722              	.LFE172:
 724              		.section	.text.XMC_RTC_SetAlarmStdFormat,"ax",%progbits
 725              		.align	1
 726              		.global	XMC_RTC_SetAlarmStdFormat
 727              		.syntax unified
 728              		.thumb
 729              		.thumb_func
 731              	XMC_RTC_SetAlarmStdFormat:
 732              	.LFB173:
 254:/opt/XMClib/XMC_Peripheral_Library_v2.1.16/XMCLib/src/xmc_rtc.c **** 
 255:/opt/XMClib/XMC_Peripheral_Library_v2.1.16/XMCLib/src/xmc_rtc.c **** 
 256:/opt/XMClib/XMC_Peripheral_Library_v2.1.16/XMCLib/src/xmc_rtc.c **** /*
 257:/opt/XMClib/XMC_Peripheral_Library_v2.1.16/XMCLib/src/xmc_rtc.c ****  * Sets the RTC module alarm time value in standard format
 258:/opt/XMClib/XMC_Peripheral_Library_v2.1.16/XMCLib/src/xmc_rtc.c ****  */
 259:/opt/XMClib/XMC_Peripheral_Library_v2.1.16/XMCLib/src/xmc_rtc.c **** void XMC_RTC_SetAlarmStdFormat(const struct tm *const stdtime)
 260:/opt/XMClib/XMC_Peripheral_Library_v2.1.16/XMCLib/src/xmc_rtc.c **** {
 733              		.loc 2 260 1
 734              		.cfi_startproc
 735              		@ args = 0, pretend = 0, frame = 16
 736              		@ frame_needed = 1, uses_anonymous_args = 0
 737 0000 80B5     		push	{r7, lr}
 738              	.LCFI46:
 739              		.cfi_def_cfa_offset 8
 740              		.cfi_offset 7, -8
 741              		.cfi_offset 14, -4
 742 0002 84B0     		sub	sp, sp, #16
 743              	.LCFI47:
 744              		.cfi_def_cfa_offset 24
 745 0004 00AF     		add	r7, sp, #0
 746              	.LCFI48:
 747              		.cfi_def_cfa_register 7
 748 0006 7860     		str	r0, [r7, #4]
 261:/opt/XMClib/XMC_Peripheral_Library_v2.1.16/XMCLib/src/xmc_rtc.c ****   XMC_RTC_ALARM_t alarm;
 262:/opt/XMClib/XMC_Peripheral_Library_v2.1.16/XMCLib/src/xmc_rtc.c ****   
 263:/opt/XMClib/XMC_Peripheral_Library_v2.1.16/XMCLib/src/xmc_rtc.c **** 
 264:/opt/XMClib/XMC_Peripheral_Library_v2.1.16/XMCLib/src/xmc_rtc.c ****   alarm.seconds = stdtime->tm_sec;
 749              		.loc 2 264 26
 750 0008 7B68     		ldr	r3, [r7, #4]
 751 000a 1B68     		ldr	r3, [r3]
 752 000c 03F03F03 		and	r3, r3, #63
 753 0010 DAB2     		uxtb	r2, r3
 754              		.loc 2 264 17
 755 0012 3B7A     		ldrb	r3, [r7, #8]
 756 0014 62F30503 		bfi	r3, r2, #0, #6
 757 0018 3B72     		strb	r3, [r7, #8]
 265:/opt/XMClib/XMC_Peripheral_Library_v2.1.16/XMCLib/src/xmc_rtc.c ****   alarm.minutes = stdtime->tm_min;
 758              		.loc 2 265 26
 759 001a 7B68     		ldr	r3, [r7, #4]
 760 001c 5B68     		ldr	r3, [r3, #4]
 761 001e 03F03F03 		and	r3, r3, #63
 762 0022 DAB2     		uxtb	r2, r3
 763              		.loc 2 265 17
 764 0024 7B7A     		ldrb	r3, [r7, #9]
 765 0026 62F30503 		bfi	r3, r2, #0, #6
 766 002a 7B72     		strb	r3, [r7, #9]
 266:/opt/XMClib/XMC_Peripheral_Library_v2.1.16/XMCLib/src/xmc_rtc.c ****   alarm.hours = stdtime->tm_hour;
 767              		.loc 2 266 24
 768 002c 7B68     		ldr	r3, [r7, #4]
 769 002e 9B68     		ldr	r3, [r3, #8]
 770 0030 03F01F03 		and	r3, r3, #31
 771 0034 DAB2     		uxtb	r2, r3
 772              		.loc 2 266 15
 773 0036 BB7A     		ldrb	r3, [r7, #10]
 774 0038 62F30403 		bfi	r3, r2, #0, #5
 775 003c BB72     		strb	r3, [r7, #10]
 267:/opt/XMClib/XMC_Peripheral_Library_v2.1.16/XMCLib/src/xmc_rtc.c ****   alarm.days = stdtime->tm_mday - 1;
 776              		.loc 2 267 23
 777 003e 7B68     		ldr	r3, [r7, #4]
 778 0040 DB68     		ldr	r3, [r3, #12]
 779              		.loc 2 267 33
 780 0042 DBB2     		uxtb	r3, r3
 781 0044 013B     		subs	r3, r3, #1
 782 0046 DBB2     		uxtb	r3, r3
 783 0048 03F01F03 		and	r3, r3, #31
 784 004c DAB2     		uxtb	r2, r3
 785              		.loc 2 267 14
 786 004e FB7A     		ldrb	r3, [r7, #11]
 787 0050 62F30403 		bfi	r3, r2, #0, #5
 788 0054 FB72     		strb	r3, [r7, #11]
 268:/opt/XMClib/XMC_Peripheral_Library_v2.1.16/XMCLib/src/xmc_rtc.c ****   alarm.month = stdtime->tm_mon;
 789              		.loc 2 268 24
 790 0056 7B68     		ldr	r3, [r7, #4]
 791 0058 1B69     		ldr	r3, [r3, #16]
 792 005a 03F00F03 		and	r3, r3, #15
 793 005e DAB2     		uxtb	r2, r3
 794              		.loc 2 268 15
 795 0060 7B7B     		ldrb	r3, [r7, #13]
 796 0062 62F30303 		bfi	r3, r2, #0, #4
 797 0066 7B73     		strb	r3, [r7, #13]
 269:/opt/XMClib/XMC_Peripheral_Library_v2.1.16/XMCLib/src/xmc_rtc.c ****   alarm.year = stdtime->tm_year + XMC_RTC_YEAR_OFFSET;
 798              		.loc 2 269 23
 799 0068 7B68     		ldr	r3, [r7, #4]
 800 006a 5B69     		ldr	r3, [r3, #20]
 801              		.loc 2 269 33
 802 006c 9BB2     		uxth	r3, r3
 803 006e 03F26C73 		addw	r3, r3, #1900
 804 0072 9BB2     		uxth	r3, r3
 805              		.loc 2 269 14
 806 0074 FB81     		strh	r3, [r7, #14]	@ movhi
 270:/opt/XMClib/XMC_Peripheral_Library_v2.1.16/XMCLib/src/xmc_rtc.c **** 
 271:/opt/XMClib/XMC_Peripheral_Library_v2.1.16/XMCLib/src/xmc_rtc.c ****   XMC_RTC_SetAlarm(&alarm);
 807              		.loc 2 271 3
 808 0076 07F10803 		add	r3, r7, #8
 809 007a 1846     		mov	r0, r3
 810 007c FFF7FEFF 		bl	XMC_RTC_SetAlarm
 272:/opt/XMClib/XMC_Peripheral_Library_v2.1.16/XMCLib/src/xmc_rtc.c **** }
 811              		.loc 2 272 1
 812 0080 00BF     		nop
 813 0082 1037     		adds	r7, r7, #16
 814              	.LCFI49:
 815              		.cfi_def_cfa_offset 8
 816 0084 BD46     		mov	sp, r7
 817              	.LCFI50:
 818              		.cfi_def_cfa_register 13
 819              		@ sp needed
 820 0086 80BD     		pop	{r7, pc}
 821              		.cfi_endproc
 822              	.LFE173:
 824              		.section	.text.XMC_RTC_GetAlarmStdFormat,"ax",%progbits
 825              		.align	1
 826              		.global	XMC_RTC_GetAlarmStdFormat
 827              		.syntax unified
 828              		.thumb
 829              		.thumb_func
 831              	XMC_RTC_GetAlarmStdFormat:
 832              	.LFB174:
 273:/opt/XMClib/XMC_Peripheral_Library_v2.1.16/XMCLib/src/xmc_rtc.c **** 
 274:/opt/XMClib/XMC_Peripheral_Library_v2.1.16/XMCLib/src/xmc_rtc.c **** /*
 275:/opt/XMClib/XMC_Peripheral_Library_v2.1.16/XMCLib/src/xmc_rtc.c ****  * Gets the RTC module alarm time value in standard format
 276:/opt/XMClib/XMC_Peripheral_Library_v2.1.16/XMCLib/src/xmc_rtc.c ****  */
 277:/opt/XMClib/XMC_Peripheral_Library_v2.1.16/XMCLib/src/xmc_rtc.c **** void XMC_RTC_GetAlarmStdFormat(struct tm *const stdtime)
 278:/opt/XMClib/XMC_Peripheral_Library_v2.1.16/XMCLib/src/xmc_rtc.c **** {
 833              		.loc 2 278 1
 834              		.cfi_startproc
 835              		@ args = 0, pretend = 0, frame = 16
 836              		@ frame_needed = 1, uses_anonymous_args = 0
 837              		@ link register save eliminated.
 838 0000 80B4     		push	{r7}
 839              	.LCFI51:
 840              		.cfi_def_cfa_offset 4
 841              		.cfi_offset 7, -4
 842 0002 85B0     		sub	sp, sp, #20
 843              	.LCFI52:
 844              		.cfi_def_cfa_offset 24
 845 0004 00AF     		add	r7, sp, #0
 846              	.LCFI53:
 847              		.cfi_def_cfa_register 7
 848 0006 7860     		str	r0, [r7, #4]
 279:/opt/XMClib/XMC_Peripheral_Library_v2.1.16/XMCLib/src/xmc_rtc.c ****   XMC_RTC_ALARM_t alarm;
 280:/opt/XMClib/XMC_Peripheral_Library_v2.1.16/XMCLib/src/xmc_rtc.c ****   
 281:/opt/XMClib/XMC_Peripheral_Library_v2.1.16/XMCLib/src/xmc_rtc.c ****   alarm.raw0 = RTC->ATIM0;
 849              		.loc 2 281 19
 850 0008 194B     		ldr	r3, .L39
 851 000a 9B69     		ldr	r3, [r3, #24]
 852              		.loc 2 281 14
 853 000c BB60     		str	r3, [r7, #8]
 282:/opt/XMClib/XMC_Peripheral_Library_v2.1.16/XMCLib/src/xmc_rtc.c ****   alarm.raw1 = RTC->ATIM1;
 854              		.loc 2 282 19
 855 000e 184B     		ldr	r3, .L39
 856 0010 DB69     		ldr	r3, [r3, #28]
 857              		.loc 2 282 14
 858 0012 FB60     		str	r3, [r7, #12]
 283:/opt/XMClib/XMC_Peripheral_Library_v2.1.16/XMCLib/src/xmc_rtc.c **** 
 284:/opt/XMClib/XMC_Peripheral_Library_v2.1.16/XMCLib/src/xmc_rtc.c ****   stdtime->tm_sec = (int8_t)alarm.seconds;
 859              		.loc 2 284 34
 860 0014 3B7A     		ldrb	r3, [r7, #8]
 861 0016 C3F30503 		ubfx	r3, r3, #0, #6
 862 001a DBB2     		uxtb	r3, r3
 863              		.loc 2 284 21
 864 001c 1A46     		mov	r2, r3
 865              		.loc 2 284 19
 866 001e 7B68     		ldr	r3, [r7, #4]
 867 0020 1A60     		str	r2, [r3]
 285:/opt/XMClib/XMC_Peripheral_Library_v2.1.16/XMCLib/src/xmc_rtc.c ****   stdtime->tm_min = (int8_t)alarm.minutes;
 868              		.loc 2 285 34
 869 0022 7B7A     		ldrb	r3, [r7, #9]
 870 0024 C3F30503 		ubfx	r3, r3, #0, #6
 871 0028 DBB2     		uxtb	r3, r3
 872              		.loc 2 285 21
 873 002a 1A46     		mov	r2, r3
 874              		.loc 2 285 19
 875 002c 7B68     		ldr	r3, [r7, #4]
 876 002e 5A60     		str	r2, [r3, #4]
 286:/opt/XMClib/XMC_Peripheral_Library_v2.1.16/XMCLib/src/xmc_rtc.c ****   stdtime->tm_hour = (int8_t)alarm.hours;
 877              		.loc 2 286 35
 878 0030 BB7A     		ldrb	r3, [r7, #10]
 879 0032 C3F30403 		ubfx	r3, r3, #0, #5
 880 0036 DBB2     		uxtb	r3, r3
 881              		.loc 2 286 22
 882 0038 1A46     		mov	r2, r3
 883              		.loc 2 286 20
 884 003a 7B68     		ldr	r3, [r7, #4]
 885 003c 9A60     		str	r2, [r3, #8]
 287:/opt/XMClib/XMC_Peripheral_Library_v2.1.16/XMCLib/src/xmc_rtc.c ****   stdtime->tm_mday = ((int8_t)alarm.days + (int8_t)1);
 886              		.loc 2 287 36
 887 003e FB7A     		ldrb	r3, [r7, #11]
 888 0040 C3F30403 		ubfx	r3, r3, #0, #5
 889 0044 DBB2     		uxtb	r3, r3
 890              		.loc 2 287 42
 891 0046 5A1C     		adds	r2, r3, #1
 892              		.loc 2 287 20
 893 0048 7B68     		ldr	r3, [r7, #4]
 894 004a DA60     		str	r2, [r3, #12]
 288:/opt/XMClib/XMC_Peripheral_Library_v2.1.16/XMCLib/src/xmc_rtc.c ****   stdtime->tm_mon = (int8_t)alarm.month;
 895              		.loc 2 288 34
 896 004c 7B7B     		ldrb	r3, [r7, #13]
 897 004e C3F30303 		ubfx	r3, r3, #0, #4
 898 0052 DBB2     		uxtb	r3, r3
 899              		.loc 2 288 21
 900 0054 1A46     		mov	r2, r3
 901              		.loc 2 288 19
 902 0056 7B68     		ldr	r3, [r7, #4]
 903 0058 1A61     		str	r2, [r3, #16]
 289:/opt/XMClib/XMC_Peripheral_Library_v2.1.16/XMCLib/src/xmc_rtc.c ****   stdtime->tm_year = (int32_t)alarm.year - (int32_t)XMC_RTC_YEAR_OFFSET;
 904              		.loc 2 289 36
 905 005a FB89     		ldrh	r3, [r7, #14]
 906              		.loc 2 289 42
 907 005c A3F26C72 		subw	r2, r3, #1900
 908              		.loc 2 289 20
 909 0060 7B68     		ldr	r3, [r7, #4]
 910 0062 5A61     		str	r2, [r3, #20]
 290:/opt/XMClib/XMC_Peripheral_Library_v2.1.16/XMCLib/src/xmc_rtc.c **** }
 911              		.loc 2 290 1
 912 0064 00BF     		nop
 913 0066 1437     		adds	r7, r7, #20
 914              	.LCFI54:
 915              		.cfi_def_cfa_offset 4
 916 0068 BD46     		mov	sp, r7
 917              	.LCFI55:
 918              		.cfi_def_cfa_register 13
 919              		@ sp needed
 920 006a 5DF8047B 		ldr	r7, [sp], #4
 921              	.LCFI56:
 922              		.cfi_restore 7
 923              		.cfi_def_cfa_offset 0
 924 006e 7047     		bx	lr
 925              	.L40:
 926              		.align	2
 927              	.L39:
 928 0070 004A0050 		.word	1342196224
 929              		.cfi_endproc
 930              	.LFE174:
 932              		.section	.text.XMC_RTC_GetEventStatus,"ax",%progbits
 933              		.align	1
 934              		.global	XMC_RTC_GetEventStatus
 935              		.syntax unified
 936              		.thumb
 937              		.thumb_func
 939              	XMC_RTC_GetEventStatus:
 940              	.LFB175:
 291:/opt/XMClib/XMC_Peripheral_Library_v2.1.16/XMCLib/src/xmc_rtc.c **** 
 292:/opt/XMClib/XMC_Peripheral_Library_v2.1.16/XMCLib/src/xmc_rtc.c **** /*
 293:/opt/XMClib/XMC_Peripheral_Library_v2.1.16/XMCLib/src/xmc_rtc.c ****  * Gets the RTC periodic and alarm event(s) status
 294:/opt/XMClib/XMC_Peripheral_Library_v2.1.16/XMCLib/src/xmc_rtc.c ****  */
 295:/opt/XMClib/XMC_Peripheral_Library_v2.1.16/XMCLib/src/xmc_rtc.c **** uint32_t XMC_RTC_GetEventStatus(void)
 296:/opt/XMClib/XMC_Peripheral_Library_v2.1.16/XMCLib/src/xmc_rtc.c **** {
 941              		.loc 2 296 1
 942              		.cfi_startproc
 943              		@ args = 0, pretend = 0, frame = 0
 944              		@ frame_needed = 1, uses_anonymous_args = 0
 945              		@ link register save eliminated.
 946 0000 80B4     		push	{r7}
 947              	.LCFI57:
 948              		.cfi_def_cfa_offset 4
 949              		.cfi_offset 7, -4
 950 0002 00AF     		add	r7, sp, #0
 951              	.LCFI58:
 952              		.cfi_def_cfa_register 7
 297:/opt/XMClib/XMC_Peripheral_Library_v2.1.16/XMCLib/src/xmc_rtc.c ****   return RTC->STSSR;
 953              		.loc 2 297 13
 954 0004 034B     		ldr	r3, .L43
 955 0006 DB68     		ldr	r3, [r3, #12]
 298:/opt/XMClib/XMC_Peripheral_Library_v2.1.16/XMCLib/src/xmc_rtc.c **** }
 956              		.loc 2 298 1
 957 0008 1846     		mov	r0, r3
 958 000a BD46     		mov	sp, r7
 959              	.LCFI59:
 960              		.cfi_def_cfa_register 13
 961              		@ sp needed
 962 000c 5DF8047B 		ldr	r7, [sp], #4
 963              	.LCFI60:
 964              		.cfi_restore 7
 965              		.cfi_def_cfa_offset 0
 966 0010 7047     		bx	lr
 967              	.L44:
 968 0012 00BF     		.align	2
 969              	.L43:
 970 0014 004A0050 		.word	1342196224
 971              		.cfi_endproc
 972              	.LFE175:
 974              		.text
 975              	.Letext0:
 976              		.file 3 "/nas/ei/share/tools/gcc/gcc-arm/gcc-arm-none-eabi-10.3-2021.10/arm-none-eabi/include/mach
 977              		.file 4 "/nas/ei/share/tools/gcc/gcc-arm/gcc-arm-none-eabi-10.3-2021.10/arm-none-eabi/include/sys/
 978              		.file 5 "/opt/XMClib/XMC_Peripheral_Library_v2.1.16/CMSIS/Infineon/XMC4500_series/Include/XMC4500.
 979              		.file 6 "/nas/ei/share/tools/gcc/gcc-arm/gcc-arm-none-eabi-10.3-2021.10/arm-none-eabi/include/time
 980              		.file 7 "/opt/XMClib/XMC_Peripheral_Library_v2.1.16/XMCLib/inc/xmc_rtc.h"